
a.out:     file format elf32-littleriscv


Disassembly of section .text:

00010074 <register_fini>:
   10074:	00000793          	li	a5,0
   10078:	00078863          	beqz	a5,10088 <register_fini+0x14>
   1007c:	00012537          	lui	a0,0x12
   10080:	ff850513          	addi	a0,a0,-8 # 11ff8 <__libc_fini_array>
   10084:	7d10106f          	j	12054 <atexit>
   10088:	00008067          	ret

0001008c <_start>:
   1008c:	00004197          	auipc	gp,0x4
   10090:	97418193          	addi	gp,gp,-1676 # 13a00 <__global_pointer$>
   10094:	c3418513          	addi	a0,gp,-972 # 13634 <completed.1>
   10098:	c5018613          	addi	a2,gp,-944 # 13650 <__BSS_END__>
   1009c:	40a60633          	sub	a2,a2,a0
   100a0:	00000593          	li	a1,0
   100a4:	559010ef          	jal	ra,11dfc <memset>
   100a8:	00002517          	auipc	a0,0x2
   100ac:	fac50513          	addi	a0,a0,-84 # 12054 <atexit>
   100b0:	00050863          	beqz	a0,100c0 <_start+0x34>
   100b4:	00002517          	auipc	a0,0x2
   100b8:	f4450513          	addi	a0,a0,-188 # 11ff8 <__libc_fini_array>
   100bc:	799010ef          	jal	ra,12054 <atexit>
   100c0:	4a1010ef          	jal	ra,11d60 <__libc_init_array>
   100c4:	00012503          	lw	a0,0(sp)
   100c8:	00410593          	addi	a1,sp,4
   100cc:	00000613          	li	a2,0
   100d0:	074000ef          	jal	ra,10144 <main>
   100d4:	45d0106f          	j	11d30 <exit>

000100d8 <__do_global_dtors_aux>:
   100d8:	c341c703          	lbu	a4,-972(gp) # 13634 <completed.1>
   100dc:	04071263          	bnez	a4,10120 <__do_global_dtors_aux+0x48>
   100e0:	ff010113          	addi	sp,sp,-16
   100e4:	00812423          	sw	s0,8(sp)
   100e8:	00078413          	mv	s0,a5
   100ec:	00112623          	sw	ra,12(sp)
   100f0:	00000793          	li	a5,0
   100f4:	00078a63          	beqz	a5,10108 <__do_global_dtors_aux+0x30>
   100f8:	00013537          	lui	a0,0x13
   100fc:	1f050513          	addi	a0,a0,496 # 131f0 <__FRAME_END__>
   10100:	00000097          	auipc	ra,0x0
   10104:	000000e7          	jalr	zero # 0 <register_fini-0x10074>
   10108:	00100793          	li	a5,1
   1010c:	00c12083          	lw	ra,12(sp)
   10110:	c2f18a23          	sb	a5,-972(gp) # 13634 <completed.1>
   10114:	00812403          	lw	s0,8(sp)
   10118:	01010113          	addi	sp,sp,16
   1011c:	00008067          	ret
   10120:	00008067          	ret

00010124 <frame_dummy>:
   10124:	00000793          	li	a5,0
   10128:	00078c63          	beqz	a5,10140 <frame_dummy+0x1c>
   1012c:	00013537          	lui	a0,0x13
   10130:	c3818593          	addi	a1,gp,-968 # 13638 <object.0>
   10134:	1f050513          	addi	a0,a0,496 # 131f0 <__FRAME_END__>
   10138:	00000317          	auipc	t1,0x0
   1013c:	00000067          	jr	zero # 0 <register_fini-0x10074>
   10140:	00008067          	ret

00010144 <main>:
   10144:	1141                	addi	sp,sp,-16
   10146:	c606                	sw	ra,12(sp)
   10148:	c422                	sw	s0,8(sp)
   1014a:	0800                	addi	s0,sp,16
   1014c:	c2202373          	csrr	t1,vlenb
   10150:	f8800393          	li	t2,-120
   10154:	02730333          	mul	t1,t1,t2
   10158:	911a                	add	sp,sp,t1
   1015a:	710d                	addi	sp,sp,-352
   1015c:	47a1                	li	a5,8
   1015e:	fef42623          	sw	a5,-20(s0)
   10162:	c2202773          	csrr	a4,vlenb
   10166:	f8800793          	li	a5,-120
   1016a:	02f707b3          	mul	a5,a4,a5
   1016e:	f1878793          	addi	a5,a5,-232
   10172:	ff040713          	addi	a4,s0,-16
   10176:	97ba                	add	a5,a5,a4
   10178:	6749                	lui	a4,0x12
   1017a:	14c70713          	addi	a4,a4,332 # 1214c <__errno+0x8>
   1017e:	00072e83          	lw	t4,0(a4)
   10182:	00472e03          	lw	t3,4(a4)
   10186:	00872303          	lw	t1,8(a4)
   1018a:	00c72883          	lw	a7,12(a4)
   1018e:	01072803          	lw	a6,16(a4)
   10192:	4b48                	lw	a0,20(a4)
   10194:	4f0c                	lw	a1,24(a4)
   10196:	4f50                	lw	a2,28(a4)
   10198:	5314                	lw	a3,32(a4)
   1019a:	5358                	lw	a4,36(a4)
   1019c:	01d7a023          	sw	t4,0(a5)
   101a0:	01c7a223          	sw	t3,4(a5)
   101a4:	0067a423          	sw	t1,8(a5)
   101a8:	0117a623          	sw	a7,12(a5)
   101ac:	0107a823          	sw	a6,16(a5)
   101b0:	cbc8                	sw	a0,20(a5)
   101b2:	cf8c                	sw	a1,24(a5)
   101b4:	cfd0                	sw	a2,28(a5)
   101b6:	d394                	sw	a3,32(a5)
   101b8:	d3d8                	sw	a4,36(a5)
   101ba:	c2202773          	csrr	a4,vlenb
   101be:	f8800793          	li	a5,-120
   101c2:	02f707b3          	mul	a5,a4,a5
   101c6:	ef078793          	addi	a5,a5,-272
   101ca:	ff040713          	addi	a4,s0,-16
   101ce:	97ba                	add	a5,a5,a4
   101d0:	6749                	lui	a4,0x12
   101d2:	17470713          	addi	a4,a4,372 # 12174 <__errno+0x30>
   101d6:	00072e83          	lw	t4,0(a4)
   101da:	00472e03          	lw	t3,4(a4)
   101de:	00872303          	lw	t1,8(a4)
   101e2:	00c72883          	lw	a7,12(a4)
   101e6:	01072803          	lw	a6,16(a4)
   101ea:	4b48                	lw	a0,20(a4)
   101ec:	4f0c                	lw	a1,24(a4)
   101ee:	4f50                	lw	a2,28(a4)
   101f0:	5314                	lw	a3,32(a4)
   101f2:	5358                	lw	a4,36(a4)
   101f4:	01d7a023          	sw	t4,0(a5)
   101f8:	01c7a223          	sw	t3,4(a5)
   101fc:	0067a423          	sw	t1,8(a5)
   10200:	0117a623          	sw	a7,12(a5)
   10204:	0107a823          	sw	a6,16(a5)
   10208:	cbc8                	sw	a0,20(a5)
   1020a:	cf8c                	sw	a1,24(a5)
   1020c:	cfd0                	sw	a2,28(a5)
   1020e:	d394                	sw	a3,32(a5)
   10210:	d3d8                	sw	a4,36(a5)
   10212:	47c1                	li	a5,16
   10214:	fef42423          	sw	a5,-24(s0)
   10218:	c2202773          	csrr	a4,vlenb
   1021c:	f8800793          	li	a5,-120
   10220:	02f707b3          	mul	a5,a4,a5
   10224:	ec878793          	addi	a5,a5,-312
   10228:	ff040713          	addi	a4,s0,-16
   1022c:	97ba                	add	a5,a5,a4
   1022e:	6749                	lui	a4,0x12
   10230:	19c70713          	addi	a4,a4,412 # 1219c <__errno+0x58>
   10234:	00072e83          	lw	t4,0(a4)
   10238:	00472e03          	lw	t3,4(a4)
   1023c:	00872303          	lw	t1,8(a4)
   10240:	00c72883          	lw	a7,12(a4)
   10244:	01072803          	lw	a6,16(a4)
   10248:	4b48                	lw	a0,20(a4)
   1024a:	4f0c                	lw	a1,24(a4)
   1024c:	4f50                	lw	a2,28(a4)
   1024e:	5314                	lw	a3,32(a4)
   10250:	5358                	lw	a4,36(a4)
   10252:	01d7a023          	sw	t4,0(a5)
   10256:	01c7a223          	sw	t3,4(a5)
   1025a:	0067a423          	sw	t1,8(a5)
   1025e:	0117a623          	sw	a7,12(a5)
   10262:	0107a823          	sw	a6,16(a5)
   10266:	cbc8                	sw	a0,20(a5)
   10268:	cf8c                	sw	a1,24(a5)
   1026a:	cfd0                	sw	a2,28(a5)
   1026c:	d394                	sw	a3,32(a5)
   1026e:	d3d8                	sw	a4,36(a5)
   10270:	c2202773          	csrr	a4,vlenb
   10274:	f8800793          	li	a5,-120
   10278:	02f707b3          	mul	a5,a4,a5
   1027c:	ea078793          	addi	a5,a5,-352
   10280:	ff040713          	addi	a4,s0,-16
   10284:	97ba                	add	a5,a5,a4
   10286:	6749                	lui	a4,0x12
   10288:	1c470713          	addi	a4,a4,452 # 121c4 <__errno+0x80>
   1028c:	00072e83          	lw	t4,0(a4)
   10290:	00472e03          	lw	t3,4(a4)
   10294:	00872303          	lw	t1,8(a4)
   10298:	00c72883          	lw	a7,12(a4)
   1029c:	01072803          	lw	a6,16(a4)
   102a0:	4b48                	lw	a0,20(a4)
   102a2:	4f0c                	lw	a1,24(a4)
   102a4:	4f50                	lw	a2,28(a4)
   102a6:	5314                	lw	a3,32(a4)
   102a8:	5358                	lw	a4,36(a4)
   102aa:	01d7a023          	sw	t4,0(a5)
   102ae:	01c7a223          	sw	t3,4(a5)
   102b2:	0067a423          	sw	t1,8(a5)
   102b6:	0117a623          	sw	a7,12(a5)
   102ba:	0107a823          	sw	a6,16(a5)
   102be:	cbc8                	sw	a0,20(a5)
   102c0:	cf8c                	sw	a1,24(a5)
   102c2:	cfd0                	sw	a2,28(a5)
   102c4:	d394                	sw	a3,32(a5)
   102c6:	d3d8                	sw	a4,36(a5)
   102c8:	67c9                	lui	a5,0x12
   102ca:	1ec7a787          	flw	fa5,492(a5) # 121ec <__errno+0xa8>
   102ce:	fef42227          	fsw	fa5,-28(s0)
   102d2:	fec42703          	lw	a4,-20(s0)
   102d6:	c22026f3          	csrr	a3,vlenb
   102da:	f8800793          	li	a5,-120
   102de:	02f687b3          	mul	a5,a3,a5
   102e2:	f6c78793          	addi	a5,a5,-148
   102e6:	ff040693          	addi	a3,s0,-16
   102ea:	97b6                	add	a5,a5,a3
   102ec:	c398                	sw	a4,0(a5)
   102ee:	c2202773          	csrr	a4,vlenb
   102f2:	f8800793          	li	a5,-120
   102f6:	02f707b3          	mul	a5,a4,a5
   102fa:	f6878793          	addi	a5,a5,-152
   102fe:	ff040713          	addi	a4,s0,-16
   10302:	973e                	add	a4,a4,a5
   10304:	c22026f3          	csrr	a3,vlenb
   10308:	f8800793          	li	a5,-120
   1030c:	02f687b3          	mul	a5,a3,a5
   10310:	f6c78793          	addi	a5,a5,-148
   10314:	ff040693          	addi	a3,s0,-16
   10318:	97b6                	add	a5,a5,a3
   1031a:	439c                	lw	a5,0(a5)
   1031c:	0117f7d7          	vsetvli	a5,a5,e32,m2,tu,mu,d1
   10320:	c31c                	sw	a5,0(a4)
   10322:	c2202773          	csrr	a4,vlenb
   10326:	f8800793          	li	a5,-120
   1032a:	02f707b3          	mul	a5,a4,a5
   1032e:	f7078793          	addi	a5,a5,-144
   10332:	ff040713          	addi	a4,s0,-16
   10336:	973e                	add	a4,a4,a5
   10338:	c22026f3          	csrr	a3,vlenb
   1033c:	f8800793          	li	a5,-120
   10340:	02f687b3          	mul	a5,a3,a5
   10344:	f1878793          	addi	a5,a5,-232
   10348:	ff040693          	addi	a3,s0,-16
   1034c:	97b6                	add	a5,a5,a3
   1034e:	c31c                	sw	a5,0(a4)
   10350:	c2202773          	csrr	a4,vlenb
   10354:	f8800793          	li	a5,-120
   10358:	02f707b3          	mul	a5,a4,a5
   1035c:	f7078793          	addi	a5,a5,-144
   10360:	ff040713          	addi	a4,s0,-16
   10364:	97ba                	add	a5,a5,a4
   10366:	439c                	lw	a5,0(a5)
   10368:	01107057          	vsetvli	zero,zero,e32,m2,tu,mu,d1
   1036c:	0207e107          	vle32.v	v2,(a5)
   10370:	9e20b157          	vmv2r.v	v2,v2
   10374:	c2202773          	csrr	a4,vlenb
   10378:	57f9                	li	a5,-2
   1037a:	02f707b3          	mul	a5,a4,a5
   1037e:	17c1                	addi	a5,a5,-16
   10380:	ff040713          	addi	a4,s0,-16
   10384:	97ba                	add	a5,a5,a4
   10386:	22878127          	vs2r.v	v2,(a5)
   1038a:	c2202773          	csrr	a4,vlenb
   1038e:	f8800793          	li	a5,-120
   10392:	02f707b3          	mul	a5,a4,a5
   10396:	f7478793          	addi	a5,a5,-140
   1039a:	ff040713          	addi	a4,s0,-16
   1039e:	973e                	add	a4,a4,a5
   103a0:	c22026f3          	csrr	a3,vlenb
   103a4:	f8800793          	li	a5,-120
   103a8:	02f687b3          	mul	a5,a3,a5
   103ac:	ef078793          	addi	a5,a5,-272
   103b0:	ff040693          	addi	a3,s0,-16
   103b4:	97b6                	add	a5,a5,a3
   103b6:	c31c                	sw	a5,0(a4)
   103b8:	c2202773          	csrr	a4,vlenb
   103bc:	f8800793          	li	a5,-120
   103c0:	02f707b3          	mul	a5,a4,a5
   103c4:	f7478793          	addi	a5,a5,-140
   103c8:	ff040713          	addi	a4,s0,-16
   103cc:	97ba                	add	a5,a5,a4
   103ce:	439c                	lw	a5,0(a5)
   103d0:	01107057          	vsetvli	zero,zero,e32,m2,tu,mu,d1
   103d4:	0207e107          	vle32.v	v2,(a5)
   103d8:	9e20b157          	vmv2r.v	v2,v2
   103dc:	c2202773          	csrr	a4,vlenb
   103e0:	57f1                	li	a5,-4
   103e2:	02f707b3          	mul	a5,a4,a5
   103e6:	17c1                	addi	a5,a5,-16
   103e8:	ff040713          	addi	a4,s0,-16
   103ec:	97ba                	add	a5,a5,a4
   103ee:	22878127          	vs2r.v	v2,(a5)
   103f2:	c2202773          	csrr	a4,vlenb
   103f6:	f8800793          	li	a5,-120
   103fa:	02f707b3          	mul	a5,a4,a5
   103fe:	f7878793          	addi	a5,a5,-136
   10402:	ff040713          	addi	a4,s0,-16
   10406:	973e                	add	a4,a4,a5
   10408:	c22026f3          	csrr	a3,vlenb
   1040c:	f8800793          	li	a5,-120
   10410:	02f687b3          	mul	a5,a3,a5
   10414:	f1878793          	addi	a5,a5,-232
   10418:	ff040693          	addi	a3,s0,-16
   1041c:	97b6                	add	a5,a5,a3
   1041e:	c31c                	sw	a5,0(a4)
   10420:	c2202773          	csrr	a4,vlenb
   10424:	f8800793          	li	a5,-120
   10428:	02f707b3          	mul	a5,a4,a5
   1042c:	f7878793          	addi	a5,a5,-136
   10430:	ff040713          	addi	a4,s0,-16
   10434:	97ba                	add	a5,a5,a4
   10436:	439c                	lw	a5,0(a5)
   10438:	01007057          	vsetvli	zero,zero,e32,m1,tu,mu,d1
   1043c:	0207e087          	vle32.v	v1,(a5)
   10440:	9e1030d7          	vmv1r.v	v1,v1
   10444:	c2202773          	csrr	a4,vlenb
   10448:	57ed                	li	a5,-5
   1044a:	02f707b3          	mul	a5,a4,a5
   1044e:	17c1                	addi	a5,a5,-16
   10450:	ff040713          	addi	a4,s0,-16
   10454:	97ba                	add	a5,a5,a4
   10456:	028780a7          	vs1r.v	v1,(a5)
   1045a:	c2202773          	csrr	a4,vlenb
   1045e:	f8800793          	li	a5,-120
   10462:	02f707b3          	mul	a5,a4,a5
   10466:	f7c78793          	addi	a5,a5,-132
   1046a:	ff040713          	addi	a4,s0,-16
   1046e:	973e                	add	a4,a4,a5
   10470:	c22026f3          	csrr	a3,vlenb
   10474:	f8800793          	li	a5,-120
   10478:	02f687b3          	mul	a5,a3,a5
   1047c:	ef078793          	addi	a5,a5,-272
   10480:	ff040693          	addi	a3,s0,-16
   10484:	97b6                	add	a5,a5,a3
   10486:	c31c                	sw	a5,0(a4)
   10488:	c2202773          	csrr	a4,vlenb
   1048c:	f8800793          	li	a5,-120
   10490:	02f707b3          	mul	a5,a4,a5
   10494:	f7c78793          	addi	a5,a5,-132
   10498:	ff040713          	addi	a4,s0,-16
   1049c:	97ba                	add	a5,a5,a4
   1049e:	439c                	lw	a5,0(a5)
   104a0:	01007057          	vsetvli	zero,zero,e32,m1,tu,mu,d1
   104a4:	0207e087          	vle32.v	v1,(a5)
   104a8:	9e1030d7          	vmv1r.v	v1,v1
   104ac:	c2202773          	csrr	a4,vlenb
   104b0:	57e9                	li	a5,-6
   104b2:	02f707b3          	mul	a5,a4,a5
   104b6:	17c1                	addi	a5,a5,-16
   104b8:	ff040713          	addi	a4,s0,-16
   104bc:	97ba                	add	a5,a5,a4
   104be:	028780a7          	vs1r.v	v1,(a5)
   104c2:	c2202773          	csrr	a4,vlenb
   104c6:	f8800793          	li	a5,-120
   104ca:	02f707b3          	mul	a5,a4,a5
   104ce:	f8078793          	addi	a5,a5,-128
   104d2:	ff040713          	addi	a4,s0,-16
   104d6:	973e                	add	a4,a4,a5
   104d8:	c22026f3          	csrr	a3,vlenb
   104dc:	f8800793          	li	a5,-120
   104e0:	02f687b3          	mul	a5,a3,a5
   104e4:	ec878793          	addi	a5,a5,-312
   104e8:	ff040693          	addi	a3,s0,-16
   104ec:	97b6                	add	a5,a5,a3
   104ee:	c31c                	sw	a5,0(a4)
   104f0:	c2202773          	csrr	a4,vlenb
   104f4:	f8800793          	li	a5,-120
   104f8:	02f707b3          	mul	a5,a4,a5
   104fc:	f8078793          	addi	a5,a5,-128
   10500:	ff040713          	addi	a4,s0,-16
   10504:	97ba                	add	a5,a5,a4
   10506:	439c                	lw	a5,0(a5)
   10508:	01107057          	vsetvli	zero,zero,e32,m2,tu,mu,d1
   1050c:	0207e107          	vle32.v	v2,(a5)
   10510:	9e20b157          	vmv2r.v	v2,v2
   10514:	c2202773          	csrr	a4,vlenb
   10518:	57e1                	li	a5,-8
   1051a:	02f707b3          	mul	a5,a4,a5
   1051e:	17c1                	addi	a5,a5,-16
   10520:	ff040713          	addi	a4,s0,-16
   10524:	97ba                	add	a5,a5,a4
   10526:	22878127          	vs2r.v	v2,(a5)
   1052a:	c2202773          	csrr	a4,vlenb
   1052e:	f8800793          	li	a5,-120
   10532:	02f707b3          	mul	a5,a4,a5
   10536:	f8478793          	addi	a5,a5,-124
   1053a:	ff040713          	addi	a4,s0,-16
   1053e:	973e                	add	a4,a4,a5
   10540:	c22026f3          	csrr	a3,vlenb
   10544:	f8800793          	li	a5,-120
   10548:	02f687b3          	mul	a5,a3,a5
   1054c:	ea078793          	addi	a5,a5,-352
   10550:	ff040693          	addi	a3,s0,-16
   10554:	97b6                	add	a5,a5,a3
   10556:	c31c                	sw	a5,0(a4)
   10558:	c2202773          	csrr	a4,vlenb
   1055c:	f8800793          	li	a5,-120
   10560:	02f707b3          	mul	a5,a4,a5
   10564:	f8478793          	addi	a5,a5,-124
   10568:	ff040713          	addi	a4,s0,-16
   1056c:	97ba                	add	a5,a5,a4
   1056e:	439c                	lw	a5,0(a5)
   10570:	01107057          	vsetvli	zero,zero,e32,m2,tu,mu,d1
   10574:	0207e107          	vle32.v	v2,(a5)
   10578:	9e20b157          	vmv2r.v	v2,v2
   1057c:	c2202773          	csrr	a4,vlenb
   10580:	57d9                	li	a5,-10
   10582:	02f707b3          	mul	a5,a4,a5
   10586:	17c1                	addi	a5,a5,-16
   10588:	ff040713          	addi	a4,s0,-16
   1058c:	97ba                	add	a5,a5,a4
   1058e:	22878127          	vs2r.v	v2,(a5)
   10592:	c2202773          	csrr	a4,vlenb
   10596:	f8800793          	li	a5,-120
   1059a:	02f707b3          	mul	a5,a4,a5
   1059e:	f8878793          	addi	a5,a5,-120
   105a2:	ff040713          	addi	a4,s0,-16
   105a6:	973e                	add	a4,a4,a5
   105a8:	c22026f3          	csrr	a3,vlenb
   105ac:	f8800793          	li	a5,-120
   105b0:	02f687b3          	mul	a5,a3,a5
   105b4:	ec878793          	addi	a5,a5,-312
   105b8:	ff040693          	addi	a3,s0,-16
   105bc:	97b6                	add	a5,a5,a3
   105be:	c31c                	sw	a5,0(a4)
   105c0:	c2202773          	csrr	a4,vlenb
   105c4:	f8800793          	li	a5,-120
   105c8:	02f707b3          	mul	a5,a4,a5
   105cc:	f8878793          	addi	a5,a5,-120
   105d0:	ff040713          	addi	a4,s0,-16
   105d4:	97ba                	add	a5,a5,a4
   105d6:	439c                	lw	a5,0(a5)
   105d8:	01007057          	vsetvli	zero,zero,e32,m1,tu,mu,d1
   105dc:	0207e087          	vle32.v	v1,(a5)
   105e0:	9e1030d7          	vmv1r.v	v1,v1
   105e4:	c2202773          	csrr	a4,vlenb
   105e8:	57d5                	li	a5,-11
   105ea:	02f707b3          	mul	a5,a4,a5
   105ee:	17c1                	addi	a5,a5,-16
   105f0:	ff040713          	addi	a4,s0,-16
   105f4:	97ba                	add	a5,a5,a4
   105f6:	028780a7          	vs1r.v	v1,(a5)
   105fa:	c2202773          	csrr	a4,vlenb
   105fe:	f8800793          	li	a5,-120
   10602:	02f707b3          	mul	a5,a4,a5
   10606:	f8c78793          	addi	a5,a5,-116
   1060a:	ff040713          	addi	a4,s0,-16
   1060e:	973e                	add	a4,a4,a5
   10610:	c22026f3          	csrr	a3,vlenb
   10614:	f8800793          	li	a5,-120
   10618:	02f687b3          	mul	a5,a3,a5
   1061c:	ea078793          	addi	a5,a5,-352
   10620:	ff040693          	addi	a3,s0,-16
   10624:	97b6                	add	a5,a5,a3
   10626:	c31c                	sw	a5,0(a4)
   10628:	c2202773          	csrr	a4,vlenb
   1062c:	f8800793          	li	a5,-120
   10630:	02f707b3          	mul	a5,a4,a5
   10634:	f8c78793          	addi	a5,a5,-116
   10638:	ff040713          	addi	a4,s0,-16
   1063c:	97ba                	add	a5,a5,a4
   1063e:	439c                	lw	a5,0(a5)
   10640:	01007057          	vsetvli	zero,zero,e32,m1,tu,mu,d1
   10644:	0207e087          	vle32.v	v1,(a5)
   10648:	9e1030d7          	vmv1r.v	v1,v1
   1064c:	c2202773          	csrr	a4,vlenb
   10650:	57d1                	li	a5,-12
   10652:	02f707b3          	mul	a5,a4,a5
   10656:	17c1                	addi	a5,a5,-16
   10658:	ff040713          	addi	a4,s0,-16
   1065c:	97ba                	add	a5,a5,a4
   1065e:	028780a7          	vs1r.v	v1,(a5)
   10662:	c2202773          	csrr	a4,vlenb
   10666:	f8a00793          	li	a5,-118
   1066a:	02f707b3          	mul	a5,a4,a5
   1066e:	f9078793          	addi	a5,a5,-112
   10672:	ff040713          	addi	a4,s0,-16
   10676:	973e                	add	a4,a4,a5
   10678:	c22026f3          	csrr	a3,vlenb
   1067c:	57f9                	li	a5,-2
   1067e:	02f687b3          	mul	a5,a3,a5
   10682:	17c1                	addi	a5,a5,-16
   10684:	ff040693          	addi	a3,s0,-16
   10688:	97b6                	add	a5,a5,a3
   1068a:	22878107          	vl2r.v	v2,(a5)
   1068e:	22870127          	vs2r.v	v2,(a4)
   10692:	c2202773          	csrr	a4,vlenb
   10696:	f8800793          	li	a5,-120
   1069a:	02f707b3          	mul	a5,a4,a5
   1069e:	f9078793          	addi	a5,a5,-112
   106a2:	ff040713          	addi	a4,s0,-16
   106a6:	973e                	add	a4,a4,a5
   106a8:	c22026f3          	csrr	a3,vlenb
   106ac:	57f1                	li	a5,-4
   106ae:	02f687b3          	mul	a5,a3,a5
   106b2:	17c1                	addi	a5,a5,-16
   106b4:	ff040693          	addi	a3,s0,-16
   106b8:	97b6                	add	a5,a5,a3
   106ba:	22878107          	vl2r.v	v2,(a5)
   106be:	22870127          	vs2r.v	v2,(a4)
   106c2:	c2202773          	csrr	a4,vlenb
   106c6:	f8a00793          	li	a5,-118
   106ca:	02f707b3          	mul	a5,a4,a5
   106ce:	f9078793          	addi	a5,a5,-112
   106d2:	ff040713          	addi	a4,s0,-16
   106d6:	973e                	add	a4,a4,a5
   106d8:	c22026f3          	csrr	a3,vlenb
   106dc:	f8800793          	li	a5,-120
   106e0:	02f687b3          	mul	a5,a3,a5
   106e4:	f9078793          	addi	a5,a5,-112
   106e8:	ff040693          	addi	a3,s0,-16
   106ec:	97b6                	add	a5,a5,a3
   106ee:	22870207          	vl2r.v	v4,(a4)
   106f2:	22878107          	vl2r.v	v2,(a5)
   106f6:	01107057          	vsetvli	zero,zero,e32,m2,tu,mu,d1
   106fa:	02410157          	vadd.vv	v2,v4,v2
   106fe:	9e20b157          	vmv2r.v	v2,v2
   10702:	c2202773          	csrr	a4,vlenb
   10706:	57c9                	li	a5,-14
   10708:	02f707b3          	mul	a5,a4,a5
   1070c:	17c1                	addi	a5,a5,-16
   1070e:	ff040713          	addi	a4,s0,-16
   10712:	97ba                	add	a5,a5,a4
   10714:	22878127          	vs2r.v	v2,(a5)
   10718:	c2202773          	csrr	a4,vlenb
   1071c:	f8c00793          	li	a5,-116
   10720:	02f707b3          	mul	a5,a4,a5
   10724:	f9878793          	addi	a5,a5,-104
   10728:	ff040713          	addi	a4,s0,-16
   1072c:	973e                	add	a4,a4,a5
   1072e:	c22026f3          	csrr	a3,vlenb
   10732:	57f9                	li	a5,-2
   10734:	02f687b3          	mul	a5,a3,a5
   10738:	17c1                	addi	a5,a5,-16
   1073a:	ff040693          	addi	a3,s0,-16
   1073e:	97b6                	add	a5,a5,a3
   10740:	22878107          	vl2r.v	v2,(a5)
   10744:	22870127          	vs2r.v	v2,(a4)
   10748:	c2202773          	csrr	a4,vlenb
   1074c:	f8c00793          	li	a5,-116
   10750:	02f707b3          	mul	a5,a4,a5
   10754:	f9478793          	addi	a5,a5,-108
   10758:	ff040713          	addi	a4,s0,-16
   1075c:	97ba                	add	a5,a5,a4
   1075e:	fe842703          	lw	a4,-24(s0)
   10762:	c398                	sw	a4,0(a5)
   10764:	c2202773          	csrr	a4,vlenb
   10768:	f8c00793          	li	a5,-116
   1076c:	02f707b3          	mul	a5,a4,a5
   10770:	f9878793          	addi	a5,a5,-104
   10774:	ff040713          	addi	a4,s0,-16
   10778:	973e                	add	a4,a4,a5
   1077a:	c22026f3          	csrr	a3,vlenb
   1077e:	f8c00793          	li	a5,-116
   10782:	02f687b3          	mul	a5,a3,a5
   10786:	f9478793          	addi	a5,a5,-108
   1078a:	ff040693          	addi	a3,s0,-16
   1078e:	97b6                	add	a5,a5,a3
   10790:	22870107          	vl2r.v	v2,(a4)
   10794:	439c                	lw	a5,0(a5)
   10796:	01107057          	vsetvli	zero,zero,e32,m2,tu,mu,d1
   1079a:	0227c157          	vadd.vx	v2,v2,a5
   1079e:	9e20b157          	vmv2r.v	v2,v2
   107a2:	c2202773          	csrr	a4,vlenb
   107a6:	57c9                	li	a5,-14
   107a8:	02f707b3          	mul	a5,a4,a5
   107ac:	17c1                	addi	a5,a5,-16
   107ae:	ff040713          	addi	a4,s0,-16
   107b2:	97ba                	add	a5,a5,a4
   107b4:	22878127          	vs2r.v	v2,(a5)
   107b8:	c2202773          	csrr	a4,vlenb
   107bc:	f9100793          	li	a5,-111
   107c0:	02f707b3          	mul	a5,a4,a5
   107c4:	f9878793          	addi	a5,a5,-104
   107c8:	ff040713          	addi	a4,s0,-16
   107cc:	973e                	add	a4,a4,a5
   107ce:	c22026f3          	csrr	a3,vlenb
   107d2:	57ed                	li	a5,-5
   107d4:	02f687b3          	mul	a5,a3,a5
   107d8:	17c1                	addi	a5,a5,-16
   107da:	ff040693          	addi	a3,s0,-16
   107de:	97b6                	add	a5,a5,a3
   107e0:	02878087          	vl1r.v	v1,(a5)
   107e4:	028700a7          	vs1r.v	v1,(a4)
   107e8:	c2202773          	csrr	a4,vlenb
   107ec:	f8f00793          	li	a5,-113
   107f0:	02f707b3          	mul	a5,a4,a5
   107f4:	f9878793          	addi	a5,a5,-104
   107f8:	ff040713          	addi	a4,s0,-16
   107fc:	973e                	add	a4,a4,a5
   107fe:	c22026f3          	csrr	a3,vlenb
   10802:	57f9                	li	a5,-2
   10804:	02f687b3          	mul	a5,a3,a5
   10808:	17c1                	addi	a5,a5,-16
   1080a:	ff040693          	addi	a3,s0,-16
   1080e:	97b6                	add	a5,a5,a3
   10810:	22878107          	vl2r.v	v2,(a5)
   10814:	22870127          	vs2r.v	v2,(a4)
   10818:	c2202773          	csrr	a4,vlenb
   1081c:	f8e00793          	li	a5,-114
   10820:	02f707b3          	mul	a5,a4,a5
   10824:	f9878793          	addi	a5,a5,-104
   10828:	ff040713          	addi	a4,s0,-16
   1082c:	973e                	add	a4,a4,a5
   1082e:	c22026f3          	csrr	a3,vlenb
   10832:	57e9                	li	a5,-6
   10834:	02f687b3          	mul	a5,a3,a5
   10838:	17c1                	addi	a5,a5,-16
   1083a:	ff040693          	addi	a3,s0,-16
   1083e:	97b6                	add	a5,a5,a3
   10840:	02878087          	vl1r.v	v1,(a5)
   10844:	028700a7          	vs1r.v	v1,(a4)
   10848:	c2202773          	csrr	a4,vlenb
   1084c:	f9100793          	li	a5,-111
   10850:	02f707b3          	mul	a5,a4,a5
   10854:	f9878793          	addi	a5,a5,-104
   10858:	ff040713          	addi	a4,s0,-16
   1085c:	00f706b3          	add	a3,a4,a5
   10860:	c2202773          	csrr	a4,vlenb
   10864:	f8e00793          	li	a5,-114
   10868:	02f707b3          	mul	a5,a4,a5
   1086c:	f9878793          	addi	a5,a5,-104
   10870:	ff040713          	addi	a4,s0,-16
   10874:	973e                	add	a4,a4,a5
   10876:	c2202673          	csrr	a2,vlenb
   1087a:	f8f00793          	li	a5,-113
   1087e:	02f607b3          	mul	a5,a2,a5
   10882:	f9878793          	addi	a5,a5,-104
   10886:	ff040613          	addi	a2,s0,-16
   1088a:	97b2                	add	a5,a5,a2
   1088c:	02868087          	vl1r.v	v1,(a3)
   10890:	02870207          	vl1r.v	v4,(a4)
   10894:	22878107          	vl2r.v	v2,(a5)
   10898:	01107057          	vsetvli	zero,zero,e32,m2,tu,mu,d1
   1089c:	022220d7          	vredsum.vs	v1,v2,v4
   108a0:	9e1030d7          	vmv1r.v	v1,v1
   108a4:	c2202773          	csrr	a4,vlenb
   108a8:	57c5                	li	a5,-15
   108aa:	02f707b3          	mul	a5,a4,a5
   108ae:	17c1                	addi	a5,a5,-16
   108b0:	ff040713          	addi	a4,s0,-16
   108b4:	97ba                	add	a5,a5,a4
   108b6:	028780a7          	vs1r.v	v1,(a5)
   108ba:	c2202773          	csrr	a4,vlenb
   108be:	f9200793          	li	a5,-110
   108c2:	02f707b3          	mul	a5,a4,a5
   108c6:	fa078793          	addi	a5,a5,-96
   108ca:	ff040713          	addi	a4,s0,-16
   108ce:	973e                	add	a4,a4,a5
   108d0:	c22026f3          	csrr	a3,vlenb
   108d4:	57f9                	li	a5,-2
   108d6:	02f687b3          	mul	a5,a3,a5
   108da:	17c1                	addi	a5,a5,-16
   108dc:	ff040693          	addi	a3,s0,-16
   108e0:	97b6                	add	a5,a5,a3
   108e2:	22878107          	vl2r.v	v2,(a5)
   108e6:	22870127          	vs2r.v	v2,(a4)
   108ea:	c2202773          	csrr	a4,vlenb
   108ee:	f9200793          	li	a5,-110
   108f2:	02f707b3          	mul	a5,a4,a5
   108f6:	f9c78793          	addi	a5,a5,-100
   108fa:	ff040713          	addi	a4,s0,-16
   108fe:	97ba                	add	a5,a5,a4
   10900:	fe842703          	lw	a4,-24(s0)
   10904:	c398                	sw	a4,0(a5)
   10906:	c2202773          	csrr	a4,vlenb
   1090a:	f9200793          	li	a5,-110
   1090e:	02f707b3          	mul	a5,a4,a5
   10912:	fa078793          	addi	a5,a5,-96
   10916:	ff040713          	addi	a4,s0,-16
   1091a:	973e                	add	a4,a4,a5
   1091c:	c22026f3          	csrr	a3,vlenb
   10920:	f9200793          	li	a5,-110
   10924:	02f687b3          	mul	a5,a3,a5
   10928:	f9c78793          	addi	a5,a5,-100
   1092c:	ff040693          	addi	a3,s0,-16
   10930:	97b6                	add	a5,a5,a3
   10932:	22870107          	vl2r.v	v2,(a4)
   10936:	439c                	lw	a5,0(a5)
   10938:	01107057          	vsetvli	zero,zero,e32,m2,tu,mu,d1
   1093c:	3a27e257          	vslide1up.vx	v4,v2,a5
   10940:	9e40b157          	vmv2r.v	v2,v4
   10944:	c2202773          	csrr	a4,vlenb
   10948:	57c9                	li	a5,-14
   1094a:	02f707b3          	mul	a5,a4,a5
   1094e:	17c1                	addi	a5,a5,-16
   10950:	ff040713          	addi	a4,s0,-16
   10954:	97ba                	add	a5,a5,a4
   10956:	22878127          	vs2r.v	v2,(a5)
   1095a:	c2202773          	csrr	a4,vlenb
   1095e:	f9600793          	li	a5,-106
   10962:	02f707b3          	mul	a5,a4,a5
   10966:	fa078793          	addi	a5,a5,-96
   1096a:	ff040713          	addi	a4,s0,-16
   1096e:	973e                	add	a4,a4,a5
   10970:	c22026f3          	csrr	a3,vlenb
   10974:	57e1                	li	a5,-8
   10976:	02f687b3          	mul	a5,a3,a5
   1097a:	17c1                	addi	a5,a5,-16
   1097c:	ff040693          	addi	a3,s0,-16
   10980:	97b6                	add	a5,a5,a3
   10982:	22878107          	vl2r.v	v2,(a5)
   10986:	22870127          	vs2r.v	v2,(a4)
   1098a:	c2202773          	csrr	a4,vlenb
   1098e:	f9400793          	li	a5,-108
   10992:	02f707b3          	mul	a5,a4,a5
   10996:	fa078793          	addi	a5,a5,-96
   1099a:	ff040713          	addi	a4,s0,-16
   1099e:	973e                	add	a4,a4,a5
   109a0:	c22026f3          	csrr	a3,vlenb
   109a4:	57d9                	li	a5,-10
   109a6:	02f687b3          	mul	a5,a3,a5
   109aa:	17c1                	addi	a5,a5,-16
   109ac:	ff040693          	addi	a3,s0,-16
   109b0:	97b6                	add	a5,a5,a3
   109b2:	22878107          	vl2r.v	v2,(a5)
   109b6:	22870127          	vs2r.v	v2,(a4)
   109ba:	c2202773          	csrr	a4,vlenb
   109be:	f9600793          	li	a5,-106
   109c2:	02f707b3          	mul	a5,a4,a5
   109c6:	fa078793          	addi	a5,a5,-96
   109ca:	ff040713          	addi	a4,s0,-16
   109ce:	973e                	add	a4,a4,a5
   109d0:	c22026f3          	csrr	a3,vlenb
   109d4:	f9400793          	li	a5,-108
   109d8:	02f687b3          	mul	a5,a3,a5
   109dc:	fa078793          	addi	a5,a5,-96
   109e0:	ff040693          	addi	a3,s0,-16
   109e4:	97b6                	add	a5,a5,a3
   109e6:	22870207          	vl2r.v	v4,(a4)
   109ea:	22878107          	vl2r.v	v2,(a5)
   109ee:	01107057          	vsetvli	zero,zero,e32,m2,tu,mu,d1
   109f2:	02411157          	vfadd.vv	v2,v4,v2
   109f6:	9e20b157          	vmv2r.v	v2,v2
   109fa:	c2202773          	csrr	a4,vlenb
   109fe:	57bd                	li	a5,-17
   10a00:	02f707b3          	mul	a5,a4,a5
   10a04:	17c1                	addi	a5,a5,-16
   10a06:	ff040713          	addi	a4,s0,-16
   10a0a:	97ba                	add	a5,a5,a4
   10a0c:	22878127          	vs2r.v	v2,(a5)
   10a10:	c2202773          	csrr	a4,vlenb
   10a14:	f9800793          	li	a5,-104
   10a18:	02f707b3          	mul	a5,a4,a5
   10a1c:	fa878793          	addi	a5,a5,-88
   10a20:	ff040713          	addi	a4,s0,-16
   10a24:	973e                	add	a4,a4,a5
   10a26:	c22026f3          	csrr	a3,vlenb
   10a2a:	57e1                	li	a5,-8
   10a2c:	02f687b3          	mul	a5,a3,a5
   10a30:	17c1                	addi	a5,a5,-16
   10a32:	ff040693          	addi	a3,s0,-16
   10a36:	97b6                	add	a5,a5,a3
   10a38:	22878107          	vl2r.v	v2,(a5)
   10a3c:	22870127          	vs2r.v	v2,(a4)
   10a40:	c2202773          	csrr	a4,vlenb
   10a44:	f9800793          	li	a5,-104
   10a48:	02f707b3          	mul	a5,a4,a5
   10a4c:	fa478793          	addi	a5,a5,-92
   10a50:	ff040713          	addi	a4,s0,-16
   10a54:	97ba                	add	a5,a5,a4
   10a56:	fe442787          	flw	fa5,-28(s0)
   10a5a:	e39c                	fsw	fa5,0(a5)
   10a5c:	c2202773          	csrr	a4,vlenb
   10a60:	f9800793          	li	a5,-104
   10a64:	02f707b3          	mul	a5,a4,a5
   10a68:	fa878793          	addi	a5,a5,-88
   10a6c:	ff040713          	addi	a4,s0,-16
   10a70:	973e                	add	a4,a4,a5
   10a72:	c22026f3          	csrr	a3,vlenb
   10a76:	f9800793          	li	a5,-104
   10a7a:	02f687b3          	mul	a5,a3,a5
   10a7e:	fa478793          	addi	a5,a5,-92
   10a82:	ff040693          	addi	a3,s0,-16
   10a86:	97b6                	add	a5,a5,a3
   10a88:	22870107          	vl2r.v	v2,(a4)
   10a8c:	639c                	flw	fa5,0(a5)
   10a8e:	01107057          	vsetvli	zero,zero,e32,m2,tu,mu,d1
   10a92:	0227d157          	vfadd.vf	v2,v2,fa5
   10a96:	9e20b157          	vmv2r.v	v2,v2
   10a9a:	c2202773          	csrr	a4,vlenb
   10a9e:	57bd                	li	a5,-17
   10aa0:	02f707b3          	mul	a5,a4,a5
   10aa4:	17c1                	addi	a5,a5,-16
   10aa6:	ff040713          	addi	a4,s0,-16
   10aaa:	97ba                	add	a5,a5,a4
   10aac:	22878127          	vs2r.v	v2,(a5)
   10ab0:	c2202773          	csrr	a4,vlenb
   10ab4:	f9d00793          	li	a5,-99
   10ab8:	02f707b3          	mul	a5,a4,a5
   10abc:	fa878793          	addi	a5,a5,-88
   10ac0:	ff040713          	addi	a4,s0,-16
   10ac4:	973e                	add	a4,a4,a5
   10ac6:	c22026f3          	csrr	a3,vlenb
   10aca:	57d5                	li	a5,-11
   10acc:	02f687b3          	mul	a5,a3,a5
   10ad0:	17c1                	addi	a5,a5,-16
   10ad2:	ff040693          	addi	a3,s0,-16
   10ad6:	97b6                	add	a5,a5,a3
   10ad8:	02878087          	vl1r.v	v1,(a5)
   10adc:	028700a7          	vs1r.v	v1,(a4)
   10ae0:	c2202773          	csrr	a4,vlenb
   10ae4:	f9b00793          	li	a5,-101
   10ae8:	02f707b3          	mul	a5,a4,a5
   10aec:	fa878793          	addi	a5,a5,-88
   10af0:	ff040713          	addi	a4,s0,-16
   10af4:	973e                	add	a4,a4,a5
   10af6:	c22026f3          	csrr	a3,vlenb
   10afa:	57e1                	li	a5,-8
   10afc:	02f687b3          	mul	a5,a3,a5
   10b00:	17c1                	addi	a5,a5,-16
   10b02:	ff040693          	addi	a3,s0,-16
   10b06:	97b6                	add	a5,a5,a3
   10b08:	22878107          	vl2r.v	v2,(a5)
   10b0c:	22870127          	vs2r.v	v2,(a4)
   10b10:	c2202773          	csrr	a4,vlenb
   10b14:	f9a00793          	li	a5,-102
   10b18:	02f707b3          	mul	a5,a4,a5
   10b1c:	fa878793          	addi	a5,a5,-88
   10b20:	ff040713          	addi	a4,s0,-16
   10b24:	973e                	add	a4,a4,a5
   10b26:	c22026f3          	csrr	a3,vlenb
   10b2a:	57d1                	li	a5,-12
   10b2c:	02f687b3          	mul	a5,a3,a5
   10b30:	17c1                	addi	a5,a5,-16
   10b32:	ff040693          	addi	a3,s0,-16
   10b36:	97b6                	add	a5,a5,a3
   10b38:	02878087          	vl1r.v	v1,(a5)
   10b3c:	028700a7          	vs1r.v	v1,(a4)
   10b40:	c2202773          	csrr	a4,vlenb
   10b44:	f9d00793          	li	a5,-99
   10b48:	02f707b3          	mul	a5,a4,a5
   10b4c:	fa878793          	addi	a5,a5,-88
   10b50:	ff040713          	addi	a4,s0,-16
   10b54:	00f706b3          	add	a3,a4,a5
   10b58:	c2202773          	csrr	a4,vlenb
   10b5c:	f9a00793          	li	a5,-102
   10b60:	02f707b3          	mul	a5,a4,a5
   10b64:	fa878793          	addi	a5,a5,-88
   10b68:	ff040713          	addi	a4,s0,-16
   10b6c:	973e                	add	a4,a4,a5
   10b6e:	c2202673          	csrr	a2,vlenb
   10b72:	f9b00793          	li	a5,-101
   10b76:	02f607b3          	mul	a5,a2,a5
   10b7a:	fa878793          	addi	a5,a5,-88
   10b7e:	ff040613          	addi	a2,s0,-16
   10b82:	97b2                	add	a5,a5,a2
   10b84:	02868087          	vl1r.v	v1,(a3)
   10b88:	02870207          	vl1r.v	v4,(a4)
   10b8c:	22878107          	vl2r.v	v2,(a5)
   10b90:	01107057          	vsetvli	zero,zero,e32,m2,tu,mu,d1
   10b94:	062210d7          	vfredsum.vs	v1,v2,v4
   10b98:	9e1030d7          	vmv1r.v	v1,v1
   10b9c:	c2202773          	csrr	a4,vlenb
   10ba0:	57b9                	li	a5,-18
   10ba2:	02f707b3          	mul	a5,a4,a5
   10ba6:	17c1                	addi	a5,a5,-16
   10ba8:	ff040713          	addi	a4,s0,-16
   10bac:	97ba                	add	a5,a5,a4
   10bae:	028780a7          	vs1r.v	v1,(a5)
   10bb2:	c2202773          	csrr	a4,vlenb
   10bb6:	fa000793          	li	a5,-96
   10bba:	02f707b3          	mul	a5,a4,a5
   10bbe:	fa878793          	addi	a5,a5,-88
   10bc2:	ff040713          	addi	a4,s0,-16
   10bc6:	973e                	add	a4,a4,a5
   10bc8:	c22026f3          	csrr	a3,vlenb
   10bcc:	57b1                	li	a5,-20
   10bce:	02f687b3          	mul	a5,a3,a5
   10bd2:	17c1                	addi	a5,a5,-16
   10bd4:	ff040693          	addi	a3,s0,-16
   10bd8:	97b6                	add	a5,a5,a3
   10bda:	22878107          	vl2r.v	v2,(a5)
   10bde:	22870127          	vs2r.v	v2,(a4)
   10be2:	c2202773          	csrr	a4,vlenb
   10be6:	f9e00793          	li	a5,-98
   10bea:	02f707b3          	mul	a5,a4,a5
   10bee:	fa878793          	addi	a5,a5,-88
   10bf2:	ff040713          	addi	a4,s0,-16
   10bf6:	973e                	add	a4,a4,a5
   10bf8:	c22026f3          	csrr	a3,vlenb
   10bfc:	57a9                	li	a5,-22
   10bfe:	02f687b3          	mul	a5,a3,a5
   10c02:	17c1                	addi	a5,a5,-16
   10c04:	ff040693          	addi	a3,s0,-16
   10c08:	97b6                	add	a5,a5,a3
   10c0a:	22878107          	vl2r.v	v2,(a5)
   10c0e:	22870127          	vs2r.v	v2,(a4)
   10c12:	c2202773          	csrr	a4,vlenb
   10c16:	fa000793          	li	a5,-96
   10c1a:	02f707b3          	mul	a5,a4,a5
   10c1e:	fa878793          	addi	a5,a5,-88
   10c22:	ff040713          	addi	a4,s0,-16
   10c26:	973e                	add	a4,a4,a5
   10c28:	c22026f3          	csrr	a3,vlenb
   10c2c:	f9e00793          	li	a5,-98
   10c30:	02f687b3          	mul	a5,a3,a5
   10c34:	fa878793          	addi	a5,a5,-88
   10c38:	ff040693          	addi	a3,s0,-16
   10c3c:	97b6                	add	a5,a5,a3
   10c3e:	22870207          	vl2r.v	v4,(a4)
   10c42:	22878107          	vl2r.v	v2,(a5)
   10c46:	01107057          	vsetvli	zero,zero,e32,m2,tu,mu,d1
   10c4a:	82410157          	vsaddu.vv	v2,v4,v2
   10c4e:	9e20b157          	vmv2r.v	v2,v2
   10c52:	c2202773          	csrr	a4,vlenb
   10c56:	57a1                	li	a5,-24
   10c58:	02f707b3          	mul	a5,a4,a5
   10c5c:	17c1                	addi	a5,a5,-16
   10c5e:	ff040713          	addi	a4,s0,-16
   10c62:	97ba                	add	a5,a5,a4
   10c64:	22878127          	vs2r.v	v2,(a5)
   10c68:	fe842703          	lw	a4,-24(s0)
   10c6c:	c22026f3          	csrr	a3,vlenb
   10c70:	fa200793          	li	a5,-94
   10c74:	02f687b3          	mul	a5,a3,a5
   10c78:	fb078793          	addi	a5,a5,-80
   10c7c:	ff040693          	addi	a3,s0,-16
   10c80:	96be                	add	a3,a3,a5
   10c82:	c2202673          	csrr	a2,vlenb
   10c86:	57b1                	li	a5,-20
   10c88:	02f607b3          	mul	a5,a2,a5
   10c8c:	17c1                	addi	a5,a5,-16
   10c8e:	ff040613          	addi	a2,s0,-16
   10c92:	97b2                	add	a5,a5,a2
   10c94:	22878107          	vl2r.v	v2,(a5)
   10c98:	22868127          	vs2r.v	v2,(a3)
   10c9c:	c22026f3          	csrr	a3,vlenb
   10ca0:	fa200793          	li	a5,-94
   10ca4:	02f687b3          	mul	a5,a3,a5
   10ca8:	fac78793          	addi	a5,a5,-84
   10cac:	ff040693          	addi	a3,s0,-16
   10cb0:	97b6                	add	a5,a5,a3
   10cb2:	c398                	sw	a4,0(a5)
   10cb4:	c2202773          	csrr	a4,vlenb
   10cb8:	fa200793          	li	a5,-94
   10cbc:	02f707b3          	mul	a5,a4,a5
   10cc0:	fb078793          	addi	a5,a5,-80
   10cc4:	ff040713          	addi	a4,s0,-16
   10cc8:	973e                	add	a4,a4,a5
   10cca:	c22026f3          	csrr	a3,vlenb
   10cce:	fa200793          	li	a5,-94
   10cd2:	02f687b3          	mul	a5,a3,a5
   10cd6:	fac78793          	addi	a5,a5,-84
   10cda:	ff040693          	addi	a3,s0,-16
   10cde:	97b6                	add	a5,a5,a3
   10ce0:	22870107          	vl2r.v	v2,(a4)
   10ce4:	439c                	lw	a5,0(a5)
   10ce6:	01107057          	vsetvli	zero,zero,e32,m2,tu,mu,d1
   10cea:	8227c157          	vsaddu.vx	v2,v2,a5
   10cee:	9e20b157          	vmv2r.v	v2,v2
   10cf2:	c2202773          	csrr	a4,vlenb
   10cf6:	57a1                	li	a5,-24
   10cf8:	02f707b3          	mul	a5,a4,a5
   10cfc:	17c1                	addi	a5,a5,-16
   10cfe:	ff040713          	addi	a4,s0,-16
   10d02:	97ba                	add	a5,a5,a4
   10d04:	22878127          	vs2r.v	v2,(a5)
   10d08:	c2202773          	csrr	a4,vlenb
   10d0c:	fa600793          	li	a5,-90
   10d10:	02f707b3          	mul	a5,a4,a5
   10d14:	fb078793          	addi	a5,a5,-80
   10d18:	ff040713          	addi	a4,s0,-16
   10d1c:	973e                	add	a4,a4,a5
   10d1e:	c22026f3          	csrr	a3,vlenb
   10d22:	57b1                	li	a5,-20
   10d24:	02f687b3          	mul	a5,a3,a5
   10d28:	17c1                	addi	a5,a5,-16
   10d2a:	ff040693          	addi	a3,s0,-16
   10d2e:	97b6                	add	a5,a5,a3
   10d30:	22878107          	vl2r.v	v2,(a5)
   10d34:	22870127          	vs2r.v	v2,(a4)
   10d38:	c2202773          	csrr	a4,vlenb
   10d3c:	fa400793          	li	a5,-92
   10d40:	02f707b3          	mul	a5,a4,a5
   10d44:	fb078793          	addi	a5,a5,-80
   10d48:	ff040713          	addi	a4,s0,-16
   10d4c:	973e                	add	a4,a4,a5
   10d4e:	c22026f3          	csrr	a3,vlenb
   10d52:	57a9                	li	a5,-22
   10d54:	02f687b3          	mul	a5,a3,a5
   10d58:	17c1                	addi	a5,a5,-16
   10d5a:	ff040693          	addi	a3,s0,-16
   10d5e:	97b6                	add	a5,a5,a3
   10d60:	22878107          	vl2r.v	v2,(a5)
   10d64:	22870127          	vs2r.v	v2,(a4)
   10d68:	c2202773          	csrr	a4,vlenb
   10d6c:	fa600793          	li	a5,-90
   10d70:	02f707b3          	mul	a5,a4,a5
   10d74:	fb078793          	addi	a5,a5,-80
   10d78:	ff040713          	addi	a4,s0,-16
   10d7c:	973e                	add	a4,a4,a5
   10d7e:	c22026f3          	csrr	a3,vlenb
   10d82:	fa400793          	li	a5,-92
   10d86:	02f687b3          	mul	a5,a3,a5
   10d8a:	fb078793          	addi	a5,a5,-80
   10d8e:	ff040693          	addi	a3,s0,-16
   10d92:	97b6                	add	a5,a5,a3
   10d94:	22870207          	vl2r.v	v4,(a4)
   10d98:	22878107          	vl2r.v	v2,(a5)
   10d9c:	01107057          	vsetvli	zero,zero,e32,m2,tu,mu,d1
   10da0:	82412157          	vdivu.vv	v2,v4,v2
   10da4:	9e20b157          	vmv2r.v	v2,v2
   10da8:	c2202773          	csrr	a4,vlenb
   10dac:	57a1                	li	a5,-24
   10dae:	02f707b3          	mul	a5,a4,a5
   10db2:	17c1                	addi	a5,a5,-16
   10db4:	ff040713          	addi	a4,s0,-16
   10db8:	97ba                	add	a5,a5,a4
   10dba:	22878127          	vs2r.v	v2,(a5)
   10dbe:	fe842703          	lw	a4,-24(s0)
   10dc2:	c22026f3          	csrr	a3,vlenb
   10dc6:	fa800793          	li	a5,-88
   10dca:	02f687b3          	mul	a5,a3,a5
   10dce:	fb878793          	addi	a5,a5,-72
   10dd2:	ff040693          	addi	a3,s0,-16
   10dd6:	96be                	add	a3,a3,a5
   10dd8:	c2202673          	csrr	a2,vlenb
   10ddc:	57b1                	li	a5,-20
   10dde:	02f607b3          	mul	a5,a2,a5
   10de2:	17c1                	addi	a5,a5,-16
   10de4:	ff040613          	addi	a2,s0,-16
   10de8:	97b2                	add	a5,a5,a2
   10dea:	22878107          	vl2r.v	v2,(a5)
   10dee:	22868127          	vs2r.v	v2,(a3)
   10df2:	c22026f3          	csrr	a3,vlenb
   10df6:	fa800793          	li	a5,-88
   10dfa:	02f687b3          	mul	a5,a3,a5
   10dfe:	fb478793          	addi	a5,a5,-76
   10e02:	ff040693          	addi	a3,s0,-16
   10e06:	97b6                	add	a5,a5,a3
   10e08:	c398                	sw	a4,0(a5)
   10e0a:	c2202773          	csrr	a4,vlenb
   10e0e:	fa800793          	li	a5,-88
   10e12:	02f707b3          	mul	a5,a4,a5
   10e16:	fb878793          	addi	a5,a5,-72
   10e1a:	ff040713          	addi	a4,s0,-16
   10e1e:	973e                	add	a4,a4,a5
   10e20:	c22026f3          	csrr	a3,vlenb
   10e24:	fa800793          	li	a5,-88
   10e28:	02f687b3          	mul	a5,a3,a5
   10e2c:	fb478793          	addi	a5,a5,-76
   10e30:	ff040693          	addi	a3,s0,-16
   10e34:	97b6                	add	a5,a5,a3
   10e36:	22870107          	vl2r.v	v2,(a4)
   10e3a:	439c                	lw	a5,0(a5)
   10e3c:	01107057          	vsetvli	zero,zero,e32,m2,tu,mu,d1
   10e40:	8227e157          	vdivu.vx	v2,v2,a5
   10e44:	9e20b157          	vmv2r.v	v2,v2
   10e48:	c2202773          	csrr	a4,vlenb
   10e4c:	57a1                	li	a5,-24
   10e4e:	02f707b3          	mul	a5,a4,a5
   10e52:	17c1                	addi	a5,a5,-16
   10e54:	ff040713          	addi	a4,s0,-16
   10e58:	97ba                	add	a5,a5,a4
   10e5a:	22878127          	vs2r.v	v2,(a5)
   10e5e:	c2202773          	csrr	a4,vlenb
   10e62:	fac00793          	li	a5,-84
   10e66:	02f707b3          	mul	a5,a4,a5
   10e6a:	fb878793          	addi	a5,a5,-72
   10e6e:	ff040713          	addi	a4,s0,-16
   10e72:	973e                	add	a4,a4,a5
   10e74:	c22026f3          	csrr	a3,vlenb
   10e78:	57e1                	li	a5,-8
   10e7a:	02f687b3          	mul	a5,a3,a5
   10e7e:	17c1                	addi	a5,a5,-16
   10e80:	ff040693          	addi	a3,s0,-16
   10e84:	97b6                	add	a5,a5,a3
   10e86:	22878107          	vl2r.v	v2,(a5)
   10e8a:	22870127          	vs2r.v	v2,(a4)
   10e8e:	c2202773          	csrr	a4,vlenb
   10e92:	faa00793          	li	a5,-86
   10e96:	02f707b3          	mul	a5,a4,a5
   10e9a:	fb878793          	addi	a5,a5,-72
   10e9e:	ff040713          	addi	a4,s0,-16
   10ea2:	973e                	add	a4,a4,a5
   10ea4:	c22026f3          	csrr	a3,vlenb
   10ea8:	57d9                	li	a5,-10
   10eaa:	02f687b3          	mul	a5,a3,a5
   10eae:	17c1                	addi	a5,a5,-16
   10eb0:	ff040693          	addi	a3,s0,-16
   10eb4:	97b6                	add	a5,a5,a3
   10eb6:	22878107          	vl2r.v	v2,(a5)
   10eba:	22870127          	vs2r.v	v2,(a4)
   10ebe:	c2202773          	csrr	a4,vlenb
   10ec2:	fac00793          	li	a5,-84
   10ec6:	02f707b3          	mul	a5,a4,a5
   10eca:	fb878793          	addi	a5,a5,-72
   10ece:	ff040713          	addi	a4,s0,-16
   10ed2:	973e                	add	a4,a4,a5
   10ed4:	c22026f3          	csrr	a3,vlenb
   10ed8:	faa00793          	li	a5,-86
   10edc:	02f687b3          	mul	a5,a3,a5
   10ee0:	fb878793          	addi	a5,a5,-72
   10ee4:	ff040693          	addi	a3,s0,-16
   10ee8:	97b6                	add	a5,a5,a3
   10eea:	22870207          	vl2r.v	v4,(a4)
   10eee:	22878107          	vl2r.v	v2,(a5)
   10ef2:	01107057          	vsetvli	zero,zero,e32,m2,tu,mu,d1
   10ef6:	82411157          	vfdiv.vv	v2,v4,v2
   10efa:	9e20b157          	vmv2r.v	v2,v2
   10efe:	c2202773          	csrr	a4,vlenb
   10f02:	57bd                	li	a5,-17
   10f04:	02f707b3          	mul	a5,a4,a5
   10f08:	17c1                	addi	a5,a5,-16
   10f0a:	ff040713          	addi	a4,s0,-16
   10f0e:	97ba                	add	a5,a5,a4
   10f10:	22878127          	vs2r.v	v2,(a5)
   10f14:	c2202773          	csrr	a4,vlenb
   10f18:	fae00793          	li	a5,-82
   10f1c:	02f707b3          	mul	a5,a4,a5
   10f20:	fc078793          	addi	a5,a5,-64
   10f24:	ff040713          	addi	a4,s0,-16
   10f28:	973e                	add	a4,a4,a5
   10f2a:	c22026f3          	csrr	a3,vlenb
   10f2e:	57e1                	li	a5,-8
   10f30:	02f687b3          	mul	a5,a3,a5
   10f34:	17c1                	addi	a5,a5,-16
   10f36:	ff040693          	addi	a3,s0,-16
   10f3a:	97b6                	add	a5,a5,a3
   10f3c:	22878107          	vl2r.v	v2,(a5)
   10f40:	22870127          	vs2r.v	v2,(a4)
   10f44:	c2202773          	csrr	a4,vlenb
   10f48:	fae00793          	li	a5,-82
   10f4c:	02f707b3          	mul	a5,a4,a5
   10f50:	fbc78793          	addi	a5,a5,-68
   10f54:	ff040713          	addi	a4,s0,-16
   10f58:	97ba                	add	a5,a5,a4
   10f5a:	fe442787          	flw	fa5,-28(s0)
   10f5e:	e39c                	fsw	fa5,0(a5)
   10f60:	c2202773          	csrr	a4,vlenb
   10f64:	fae00793          	li	a5,-82
   10f68:	02f707b3          	mul	a5,a4,a5
   10f6c:	fc078793          	addi	a5,a5,-64
   10f70:	ff040713          	addi	a4,s0,-16
   10f74:	973e                	add	a4,a4,a5
   10f76:	c22026f3          	csrr	a3,vlenb
   10f7a:	fae00793          	li	a5,-82
   10f7e:	02f687b3          	mul	a5,a3,a5
   10f82:	fbc78793          	addi	a5,a5,-68
   10f86:	ff040693          	addi	a3,s0,-16
   10f8a:	97b6                	add	a5,a5,a3
   10f8c:	22870107          	vl2r.v	v2,(a4)
   10f90:	639c                	flw	fa5,0(a5)
   10f92:	01107057          	vsetvli	zero,zero,e32,m2,tu,mu,d1
   10f96:	8227d157          	vfdiv.vf	v2,v2,fa5
   10f9a:	9e20b157          	vmv2r.v	v2,v2
   10f9e:	c2202773          	csrr	a4,vlenb
   10fa2:	57bd                	li	a5,-17
   10fa4:	02f707b3          	mul	a5,a4,a5
   10fa8:	17c1                	addi	a5,a5,-16
   10faa:	ff040713          	addi	a4,s0,-16
   10fae:	97ba                	add	a5,a5,a4
   10fb0:	22878127          	vs2r.v	v2,(a5)
   10fb4:	c2202773          	csrr	a4,vlenb
   10fb8:	fb300793          	li	a5,-77
   10fbc:	02f707b3          	mul	a5,a4,a5
   10fc0:	fc078793          	addi	a5,a5,-64
   10fc4:	ff040713          	addi	a4,s0,-16
   10fc8:	973e                	add	a4,a4,a5
   10fca:	c22026f3          	csrr	a3,vlenb
   10fce:	579d                	li	a5,-25
   10fd0:	02f687b3          	mul	a5,a3,a5
   10fd4:	17c1                	addi	a5,a5,-16
   10fd6:	ff040693          	addi	a3,s0,-16
   10fda:	97b6                	add	a5,a5,a3
   10fdc:	02878087          	vl1r.v	v1,(a5)
   10fe0:	028700a7          	vs1r.v	v1,(a4)
   10fe4:	c2202773          	csrr	a4,vlenb
   10fe8:	fb100793          	li	a5,-79
   10fec:	02f707b3          	mul	a5,a4,a5
   10ff0:	fc078793          	addi	a5,a5,-64
   10ff4:	ff040713          	addi	a4,s0,-16
   10ff8:	973e                	add	a4,a4,a5
   10ffa:	c22026f3          	csrr	a3,vlenb
   10ffe:	57b1                	li	a5,-20
   11000:	02f687b3          	mul	a5,a3,a5
   11004:	17c1                	addi	a5,a5,-16
   11006:	ff040693          	addi	a3,s0,-16
   1100a:	97b6                	add	a5,a5,a3
   1100c:	22878107          	vl2r.v	v2,(a5)
   11010:	22870127          	vs2r.v	v2,(a4)
   11014:	c2202773          	csrr	a4,vlenb
   11018:	fb000793          	li	a5,-80
   1101c:	02f707b3          	mul	a5,a4,a5
   11020:	fc078793          	addi	a5,a5,-64
   11024:	ff040713          	addi	a4,s0,-16
   11028:	973e                	add	a4,a4,a5
   1102a:	c22026f3          	csrr	a3,vlenb
   1102e:	5799                	li	a5,-26
   11030:	02f687b3          	mul	a5,a3,a5
   11034:	17c1                	addi	a5,a5,-16
   11036:	ff040693          	addi	a3,s0,-16
   1103a:	97b6                	add	a5,a5,a3
   1103c:	02878087          	vl1r.v	v1,(a5)
   11040:	028700a7          	vs1r.v	v1,(a4)
   11044:	c2202773          	csrr	a4,vlenb
   11048:	fb300793          	li	a5,-77
   1104c:	02f707b3          	mul	a5,a4,a5
   11050:	fc078793          	addi	a5,a5,-64
   11054:	ff040713          	addi	a4,s0,-16
   11058:	00f706b3          	add	a3,a4,a5
   1105c:	c2202773          	csrr	a4,vlenb
   11060:	fb000793          	li	a5,-80
   11064:	02f707b3          	mul	a5,a4,a5
   11068:	fc078793          	addi	a5,a5,-64
   1106c:	ff040713          	addi	a4,s0,-16
   11070:	973e                	add	a4,a4,a5
   11072:	c2202673          	csrr	a2,vlenb
   11076:	fb100793          	li	a5,-79
   1107a:	02f607b3          	mul	a5,a2,a5
   1107e:	fc078793          	addi	a5,a5,-64
   11082:	ff040613          	addi	a2,s0,-16
   11086:	97b2                	add	a5,a5,a2
   11088:	02868087          	vl1r.v	v1,(a3)
   1108c:	02870207          	vl1r.v	v4,(a4)
   11090:	22878107          	vl2r.v	v2,(a5)
   11094:	01107057          	vsetvli	zero,zero,e32,m2,tu,mu,d1
   11098:	9e1030d7          	vmv1r.v	v1,v1
   1109c:	c22200d7          	vwredsumu.vs	v1,v2,v4
   110a0:	9e1030d7          	vmv1r.v	v1,v1
   110a4:	9e1030d7          	vmv1r.v	v1,v1
   110a8:	c2202773          	csrr	a4,vlenb
   110ac:	5795                	li	a5,-27
   110ae:	02f707b3          	mul	a5,a4,a5
   110b2:	17c1                	addi	a5,a5,-16
   110b4:	ff040713          	addi	a4,s0,-16
   110b8:	97ba                	add	a5,a5,a4
   110ba:	028780a7          	vs1r.v	v1,(a5)
   110be:	c2202773          	csrr	a4,vlenb
   110c2:	fb500793          	li	a5,-75
   110c6:	02f707b3          	mul	a5,a4,a5
   110ca:	fc078793          	addi	a5,a5,-64
   110ce:	ff040713          	addi	a4,s0,-16
   110d2:	973e                	add	a4,a4,a5
   110d4:	c22026f3          	csrr	a3,vlenb
   110d8:	5791                	li	a5,-28
   110da:	02f687b3          	mul	a5,a3,a5
   110de:	17c1                	addi	a5,a5,-16
   110e0:	ff040693          	addi	a3,s0,-16
   110e4:	97b6                	add	a5,a5,a3
   110e6:	02878087          	vl1r.v	v1,(a5)
   110ea:	028700a7          	vs1r.v	v1,(a4)
   110ee:	c2202773          	csrr	a4,vlenb
   110f2:	fb400793          	li	a5,-76
   110f6:	02f707b3          	mul	a5,a4,a5
   110fa:	fc078793          	addi	a5,a5,-64
   110fe:	ff040713          	addi	a4,s0,-16
   11102:	973e                	add	a4,a4,a5
   11104:	c22026f3          	csrr	a3,vlenb
   11108:	578d                	li	a5,-29
   1110a:	02f687b3          	mul	a5,a3,a5
   1110e:	17c1                	addi	a5,a5,-16
   11110:	ff040693          	addi	a3,s0,-16
   11114:	97b6                	add	a5,a5,a3
   11116:	02878087          	vl1r.v	v1,(a5)
   1111a:	028700a7          	vs1r.v	v1,(a4)
   1111e:	c2202773          	csrr	a4,vlenb
   11122:	fb500793          	li	a5,-75
   11126:	02f707b3          	mul	a5,a4,a5
   1112a:	fc078793          	addi	a5,a5,-64
   1112e:	ff040713          	addi	a4,s0,-16
   11132:	973e                	add	a4,a4,a5
   11134:	c22026f3          	csrr	a3,vlenb
   11138:	fb400793          	li	a5,-76
   1113c:	02f687b3          	mul	a5,a3,a5
   11140:	fc078793          	addi	a5,a5,-64
   11144:	ff040693          	addi	a3,s0,-16
   11148:	97b6                	add	a5,a5,a3
   1114a:	02870207          	vl1r.v	v4,(a4)
   1114e:	02878087          	vl1r.v	v1,(a5)
   11152:	00807057          	vsetvli	zero,zero,e16,m1,tu,mu,d1
   11156:	c240a157          	vwaddu.vv	v2,v4,v1
   1115a:	9e20b157          	vmv2r.v	v2,v2
   1115e:	c2202773          	csrr	a4,vlenb
   11162:	57a1                	li	a5,-24
   11164:	02f707b3          	mul	a5,a4,a5
   11168:	17c1                	addi	a5,a5,-16
   1116a:	ff040713          	addi	a4,s0,-16
   1116e:	97ba                	add	a5,a5,a4
   11170:	22878127          	vs2r.v	v2,(a5)
   11174:	fe842783          	lw	a5,-24(s0)
   11178:	01079713          	slli	a4,a5,0x10
   1117c:	8341                	srli	a4,a4,0x10
   1117e:	c22026f3          	csrr	a3,vlenb
   11182:	fb600793          	li	a5,-74
   11186:	02f687b3          	mul	a5,a3,a5
   1118a:	fc878793          	addi	a5,a5,-56
   1118e:	ff040693          	addi	a3,s0,-16
   11192:	96be                	add	a3,a3,a5
   11194:	c2202673          	csrr	a2,vlenb
   11198:	5791                	li	a5,-28
   1119a:	02f607b3          	mul	a5,a2,a5
   1119e:	17c1                	addi	a5,a5,-16
   111a0:	ff040613          	addi	a2,s0,-16
   111a4:	97b2                	add	a5,a5,a2
   111a6:	02878087          	vl1r.v	v1,(a5)
   111aa:	028680a7          	vs1r.v	v1,(a3)
   111ae:	c22026f3          	csrr	a3,vlenb
   111b2:	fb600793          	li	a5,-74
   111b6:	02f687b3          	mul	a5,a3,a5
   111ba:	fc678793          	addi	a5,a5,-58
   111be:	ff040693          	addi	a3,s0,-16
   111c2:	97b6                	add	a5,a5,a3
   111c4:	00e79023          	sh	a4,0(a5)
   111c8:	c2202773          	csrr	a4,vlenb
   111cc:	fb600793          	li	a5,-74
   111d0:	02f707b3          	mul	a5,a4,a5
   111d4:	fc878793          	addi	a5,a5,-56
   111d8:	ff040713          	addi	a4,s0,-16
   111dc:	973e                	add	a4,a4,a5
   111de:	c22026f3          	csrr	a3,vlenb
   111e2:	fb600793          	li	a5,-74
   111e6:	02f687b3          	mul	a5,a3,a5
   111ea:	fc678793          	addi	a5,a5,-58
   111ee:	ff040693          	addi	a3,s0,-16
   111f2:	97b6                	add	a5,a5,a3
   111f4:	02870087          	vl1r.v	v1,(a4)
   111f8:	0007d783          	lhu	a5,0(a5)
   111fc:	00807057          	vsetvli	zero,zero,e16,m1,tu,mu,d1
   11200:	c217e157          	vwaddu.vx	v2,v1,a5
   11204:	9e20b157          	vmv2r.v	v2,v2
   11208:	c2202773          	csrr	a4,vlenb
   1120c:	57a1                	li	a5,-24
   1120e:	02f707b3          	mul	a5,a4,a5
   11212:	17c1                	addi	a5,a5,-16
   11214:	ff040713          	addi	a4,s0,-16
   11218:	97ba                	add	a5,a5,a4
   1121a:	22878127          	vs2r.v	v2,(a5)
   1121e:	c2202773          	csrr	a4,vlenb
   11222:	fb800793          	li	a5,-72
   11226:	02f707b3          	mul	a5,a4,a5
   1122a:	fc878793          	addi	a5,a5,-56
   1122e:	ff040713          	addi	a4,s0,-16
   11232:	973e                	add	a4,a4,a5
   11234:	c22026f3          	csrr	a3,vlenb
   11238:	57b1                	li	a5,-20
   1123a:	02f687b3          	mul	a5,a3,a5
   1123e:	17c1                	addi	a5,a5,-16
   11240:	ff040693          	addi	a3,s0,-16
   11244:	97b6                	add	a5,a5,a3
   11246:	22878107          	vl2r.v	v2,(a5)
   1124a:	22870127          	vs2r.v	v2,(a4)
   1124e:	c2202773          	csrr	a4,vlenb
   11252:	fb700793          	li	a5,-73
   11256:	02f707b3          	mul	a5,a4,a5
   1125a:	fc878793          	addi	a5,a5,-56
   1125e:	ff040713          	addi	a4,s0,-16
   11262:	973e                	add	a4,a4,a5
   11264:	c22026f3          	csrr	a3,vlenb
   11268:	5791                	li	a5,-28
   1126a:	02f687b3          	mul	a5,a3,a5
   1126e:	17c1                	addi	a5,a5,-16
   11270:	ff040693          	addi	a3,s0,-16
   11274:	97b6                	add	a5,a5,a3
   11276:	02878087          	vl1r.v	v1,(a5)
   1127a:	028700a7          	vs1r.v	v1,(a4)
   1127e:	c2202773          	csrr	a4,vlenb
   11282:	fb800793          	li	a5,-72
   11286:	02f707b3          	mul	a5,a4,a5
   1128a:	fc878793          	addi	a5,a5,-56
   1128e:	ff040713          	addi	a4,s0,-16
   11292:	973e                	add	a4,a4,a5
   11294:	c22026f3          	csrr	a3,vlenb
   11298:	fb700793          	li	a5,-73
   1129c:	02f687b3          	mul	a5,a3,a5
   112a0:	fc878793          	addi	a5,a5,-56
   112a4:	ff040693          	addi	a3,s0,-16
   112a8:	97b6                	add	a5,a5,a3
   112aa:	22870107          	vl2r.v	v2,(a4)
   112ae:	02878087          	vl1r.v	v1,(a5)
   112b2:	00807057          	vsetvli	zero,zero,e16,m1,tu,mu,d1
   112b6:	d220a257          	vwaddu.wv	v4,v2,v1
   112ba:	9e40b157          	vmv2r.v	v2,v4
   112be:	c2202773          	csrr	a4,vlenb
   112c2:	57a1                	li	a5,-24
   112c4:	02f707b3          	mul	a5,a4,a5
   112c8:	17c1                	addi	a5,a5,-16
   112ca:	ff040713          	addi	a4,s0,-16
   112ce:	97ba                	add	a5,a5,a4
   112d0:	22878127          	vs2r.v	v2,(a5)
   112d4:	fe842783          	lw	a5,-24(s0)
   112d8:	01079713          	slli	a4,a5,0x10
   112dc:	8341                	srli	a4,a4,0x10
   112de:	c22026f3          	csrr	a3,vlenb
   112e2:	fba00793          	li	a5,-70
   112e6:	02f687b3          	mul	a5,a3,a5
   112ea:	fd078793          	addi	a5,a5,-48
   112ee:	ff040693          	addi	a3,s0,-16
   112f2:	96be                	add	a3,a3,a5
   112f4:	c2202673          	csrr	a2,vlenb
   112f8:	57b1                	li	a5,-20
   112fa:	02f607b3          	mul	a5,a2,a5
   112fe:	17c1                	addi	a5,a5,-16
   11300:	ff040613          	addi	a2,s0,-16
   11304:	97b2                	add	a5,a5,a2
   11306:	22878107          	vl2r.v	v2,(a5)
   1130a:	22868127          	vs2r.v	v2,(a3)
   1130e:	c22026f3          	csrr	a3,vlenb
   11312:	fba00793          	li	a5,-70
   11316:	02f687b3          	mul	a5,a3,a5
   1131a:	fce78793          	addi	a5,a5,-50
   1131e:	ff040693          	addi	a3,s0,-16
   11322:	97b6                	add	a5,a5,a3
   11324:	00e79023          	sh	a4,0(a5)
   11328:	c2202773          	csrr	a4,vlenb
   1132c:	fba00793          	li	a5,-70
   11330:	02f707b3          	mul	a5,a4,a5
   11334:	fd078793          	addi	a5,a5,-48
   11338:	ff040713          	addi	a4,s0,-16
   1133c:	973e                	add	a4,a4,a5
   1133e:	c22026f3          	csrr	a3,vlenb
   11342:	fba00793          	li	a5,-70
   11346:	02f687b3          	mul	a5,a3,a5
   1134a:	fce78793          	addi	a5,a5,-50
   1134e:	ff040693          	addi	a3,s0,-16
   11352:	97b6                	add	a5,a5,a3
   11354:	22870107          	vl2r.v	v2,(a4)
   11358:	0007d783          	lhu	a5,0(a5)
   1135c:	00807057          	vsetvli	zero,zero,e16,m1,tu,mu,d1
   11360:	d227e257          	vwaddu.wx	v4,v2,a5
   11364:	9e40b157          	vmv2r.v	v2,v4
   11368:	c2202773          	csrr	a4,vlenb
   1136c:	57a1                	li	a5,-24
   1136e:	02f707b3          	mul	a5,a4,a5
   11372:	17c1                	addi	a5,a5,-16
   11374:	ff040713          	addi	a4,s0,-16
   11378:	97ba                	add	a5,a5,a4
   1137a:	22878127          	vs2r.v	v2,(a5)
   1137e:	c2202773          	csrr	a4,vlenb
   11382:	fbf00793          	li	a5,-65
   11386:	02f707b3          	mul	a5,a4,a5
   1138a:	fd078793          	addi	a5,a5,-48
   1138e:	ff040713          	addi	a4,s0,-16
   11392:	973e                	add	a4,a4,a5
   11394:	c22026f3          	csrr	a3,vlenb
   11398:	5789                	li	a5,-30
   1139a:	02f687b3          	mul	a5,a3,a5
   1139e:	17c1                	addi	a5,a5,-16
   113a0:	ff040693          	addi	a3,s0,-16
   113a4:	97b6                	add	a5,a5,a3
   113a6:	02878087          	vl1r.v	v1,(a5)
   113aa:	028700a7          	vs1r.v	v1,(a4)
   113ae:	c2202773          	csrr	a4,vlenb
   113b2:	fbd00793          	li	a5,-67
   113b6:	02f707b3          	mul	a5,a4,a5
   113ba:	fd078793          	addi	a5,a5,-48
   113be:	ff040713          	addi	a4,s0,-16
   113c2:	973e                	add	a4,a4,a5
   113c4:	c22026f3          	csrr	a3,vlenb
   113c8:	57e1                	li	a5,-8
   113ca:	02f687b3          	mul	a5,a3,a5
   113ce:	17c1                	addi	a5,a5,-16
   113d0:	ff040693          	addi	a3,s0,-16
   113d4:	97b6                	add	a5,a5,a3
   113d6:	22878107          	vl2r.v	v2,(a5)
   113da:	22870127          	vs2r.v	v2,(a4)
   113de:	c2202773          	csrr	a4,vlenb
   113e2:	fbc00793          	li	a5,-68
   113e6:	02f707b3          	mul	a5,a4,a5
   113ea:	fd078793          	addi	a5,a5,-48
   113ee:	ff040713          	addi	a4,s0,-16
   113f2:	973e                	add	a4,a4,a5
   113f4:	c22026f3          	csrr	a3,vlenb
   113f8:	5785                	li	a5,-31
   113fa:	02f687b3          	mul	a5,a3,a5
   113fe:	17c1                	addi	a5,a5,-16
   11400:	ff040693          	addi	a3,s0,-16
   11404:	97b6                	add	a5,a5,a3
   11406:	02878087          	vl1r.v	v1,(a5)
   1140a:	028700a7          	vs1r.v	v1,(a4)
   1140e:	c2202773          	csrr	a4,vlenb
   11412:	fbf00793          	li	a5,-65
   11416:	02f707b3          	mul	a5,a4,a5
   1141a:	fd078793          	addi	a5,a5,-48
   1141e:	ff040713          	addi	a4,s0,-16
   11422:	00f706b3          	add	a3,a4,a5
   11426:	c2202773          	csrr	a4,vlenb
   1142a:	fbc00793          	li	a5,-68
   1142e:	02f707b3          	mul	a5,a4,a5
   11432:	fd078793          	addi	a5,a5,-48
   11436:	ff040713          	addi	a4,s0,-16
   1143a:	973e                	add	a4,a4,a5
   1143c:	c2202673          	csrr	a2,vlenb
   11440:	fbd00793          	li	a5,-67
   11444:	02f607b3          	mul	a5,a2,a5
   11448:	fd078793          	addi	a5,a5,-48
   1144c:	ff040613          	addi	a2,s0,-16
   11450:	97b2                	add	a5,a5,a2
   11452:	02868087          	vl1r.v	v1,(a3)
   11456:	02870207          	vl1r.v	v4,(a4)
   1145a:	22878107          	vl2r.v	v2,(a5)
   1145e:	01107057          	vsetvli	zero,zero,e32,m2,tu,mu,d1
   11462:	9e1030d7          	vmv1r.v	v1,v1
   11466:	c62210d7          	vfwredsum.vs	v1,v2,v4
   1146a:	9e1030d7          	vmv1r.v	v1,v1
   1146e:	9e1030d7          	vmv1r.v	v1,v1
   11472:	c2202773          	csrr	a4,vlenb
   11476:	5781                	li	a5,-32
   11478:	02f707b3          	mul	a5,a4,a5
   1147c:	17c1                	addi	a5,a5,-16
   1147e:	ff040713          	addi	a4,s0,-16
   11482:	97ba                	add	a5,a5,a4
   11484:	028780a7          	vs1r.v	v1,(a5)
   11488:	c2202773          	csrr	a4,vlenb
   1148c:	fc100793          	li	a5,-63
   11490:	02f707b3          	mul	a5,a4,a5
   11494:	fd078793          	addi	a5,a5,-48
   11498:	ff040713          	addi	a4,s0,-16
   1149c:	973e                	add	a4,a4,a5
   1149e:	c22026f3          	csrr	a3,vlenb
   114a2:	57e1                	li	a5,-8
   114a4:	02f687b3          	mul	a5,a3,a5
   114a8:	17c1                	addi	a5,a5,-16
   114aa:	ff040693          	addi	a3,s0,-16
   114ae:	97b6                	add	a5,a5,a3
   114b0:	22878107          	vl2r.v	v2,(a5)
   114b4:	22870127          	vs2r.v	v2,(a4)
   114b8:	c2202773          	csrr	a4,vlenb
   114bc:	fc000793          	li	a5,-64
   114c0:	02f707b3          	mul	a5,a4,a5
   114c4:	fd078793          	addi	a5,a5,-48
   114c8:	ff040713          	addi	a4,s0,-16
   114cc:	973e                	add	a4,a4,a5
   114ce:	c22026f3          	csrr	a3,vlenb
   114d2:	fdf00793          	li	a5,-33
   114d6:	02f687b3          	mul	a5,a3,a5
   114da:	17c1                	addi	a5,a5,-16
   114dc:	ff040693          	addi	a3,s0,-16
   114e0:	97b6                	add	a5,a5,a3
   114e2:	02878087          	vl1r.v	v1,(a5)
   114e6:	028700a7          	vs1r.v	v1,(a4)
   114ea:	c2202773          	csrr	a4,vlenb
   114ee:	fc100793          	li	a5,-63
   114f2:	02f707b3          	mul	a5,a4,a5
   114f6:	fd078793          	addi	a5,a5,-48
   114fa:	ff040713          	addi	a4,s0,-16
   114fe:	973e                	add	a4,a4,a5
   11500:	c22026f3          	csrr	a3,vlenb
   11504:	fc000793          	li	a5,-64
   11508:	02f687b3          	mul	a5,a3,a5
   1150c:	fd078793          	addi	a5,a5,-48
   11510:	ff040693          	addi	a3,s0,-16
   11514:	97b6                	add	a5,a5,a3
   11516:	22870107          	vl2r.v	v2,(a4)
   1151a:	02878087          	vl1r.v	v1,(a5)
   1151e:	00807057          	vsetvli	zero,zero,e16,m1,tu,mu,d1
   11522:	d2209257          	vfwadd.wv	v4,v2,v1
   11526:	9e40b157          	vmv2r.v	v2,v4
   1152a:	c2202773          	csrr	a4,vlenb
   1152e:	57bd                	li	a5,-17
   11530:	02f707b3          	mul	a5,a4,a5
   11534:	17c1                	addi	a5,a5,-16
   11536:	ff040713          	addi	a4,s0,-16
   1153a:	97ba                	add	a5,a5,a4
   1153c:	22878127          	vs2r.v	v2,(a5)
   11540:	fe442503          	lw	a0,-28(s0)
   11544:	25c1                	jal	11c04 <__truncsfhf2>
   11546:	862a                	mv	a2,a0
   11548:	c2202773          	csrr	a4,vlenb
   1154c:	fc300793          	li	a5,-61
   11550:	02f707b3          	mul	a5,a4,a5
   11554:	fd878793          	addi	a5,a5,-40
   11558:	ff040713          	addi	a4,s0,-16
   1155c:	973e                	add	a4,a4,a5
   1155e:	c22026f3          	csrr	a3,vlenb
   11562:	57e1                	li	a5,-8
   11564:	02f687b3          	mul	a5,a3,a5
   11568:	17c1                	addi	a5,a5,-16
   1156a:	ff040693          	addi	a3,s0,-16
   1156e:	97b6                	add	a5,a5,a3
   11570:	22878107          	vl2r.v	v2,(a5)
   11574:	22870127          	vs2r.v	v2,(a4)
   11578:	c2202773          	csrr	a4,vlenb
   1157c:	fc300793          	li	a5,-61
   11580:	02f707b3          	mul	a5,a4,a5
   11584:	fd678793          	addi	a5,a5,-42
   11588:	ff040713          	addi	a4,s0,-16
   1158c:	97ba                	add	a5,a5,a4
   1158e:	00c79023          	sh	a2,0(a5)
   11592:	c2202773          	csrr	a4,vlenb
   11596:	fc300793          	li	a5,-61
   1159a:	02f707b3          	mul	a5,a4,a5
   1159e:	fd878793          	addi	a5,a5,-40
   115a2:	ff040713          	addi	a4,s0,-16
   115a6:	973e                	add	a4,a4,a5
   115a8:	c22026f3          	csrr	a3,vlenb
   115ac:	fc300793          	li	a5,-61
   115b0:	02f687b3          	mul	a5,a3,a5
   115b4:	fd678793          	addi	a5,a5,-42
   115b8:	ff040693          	addi	a3,s0,-16
   115bc:	97b6                	add	a5,a5,a3
   115be:	22870107          	vl2r.v	v2,(a4)
   115c2:	0007d783          	lhu	a5,0(a5)
   115c6:	00807057          	vsetvli	zero,zero,e16,m1,tu,mu,d1
   115ca:	f00787d3          	fmv.w.x	fa5,a5
   115ce:	d227d257          	vfwadd.wf	v4,v2,fa5
   115d2:	9e40b157          	vmv2r.v	v2,v4
   115d6:	c2202773          	csrr	a4,vlenb
   115da:	57bd                	li	a5,-17
   115dc:	02f707b3          	mul	a5,a4,a5
   115e0:	17c1                	addi	a5,a5,-16
   115e2:	ff040713          	addi	a4,s0,-16
   115e6:	97ba                	add	a5,a5,a4
   115e8:	22878127          	vs2r.v	v2,(a5)
   115ec:	c2202773          	csrr	a4,vlenb
   115f0:	fc700793          	li	a5,-57
   115f4:	02f707b3          	mul	a5,a4,a5
   115f8:	fd878793          	addi	a5,a5,-40
   115fc:	ff040713          	addi	a4,s0,-16
   11600:	973e                	add	a4,a4,a5
   11602:	c22026f3          	csrr	a3,vlenb
   11606:	57e1                	li	a5,-8
   11608:	02f687b3          	mul	a5,a3,a5
   1160c:	17c1                	addi	a5,a5,-16
   1160e:	ff040693          	addi	a3,s0,-16
   11612:	97b6                	add	a5,a5,a3
   11614:	22878107          	vl2r.v	v2,(a5)
   11618:	22870127          	vs2r.v	v2,(a4)
   1161c:	c2202773          	csrr	a4,vlenb
   11620:	fc600793          	li	a5,-58
   11624:	02f707b3          	mul	a5,a4,a5
   11628:	fd878793          	addi	a5,a5,-40
   1162c:	ff040713          	addi	a4,s0,-16
   11630:	973e                	add	a4,a4,a5
   11632:	c22026f3          	csrr	a3,vlenb
   11636:	fdf00793          	li	a5,-33
   1163a:	02f687b3          	mul	a5,a3,a5
   1163e:	17c1                	addi	a5,a5,-16
   11640:	ff040693          	addi	a3,s0,-16
   11644:	97b6                	add	a5,a5,a3
   11646:	02878087          	vl1r.v	v1,(a5)
   1164a:	028700a7          	vs1r.v	v1,(a4)
   1164e:	c2202773          	csrr	a4,vlenb
   11652:	fc500793          	li	a5,-59
   11656:	02f707b3          	mul	a5,a4,a5
   1165a:	fd878793          	addi	a5,a5,-40
   1165e:	ff040713          	addi	a4,s0,-16
   11662:	973e                	add	a4,a4,a5
   11664:	c22026f3          	csrr	a3,vlenb
   11668:	fde00793          	li	a5,-34
   1166c:	02f687b3          	mul	a5,a3,a5
   11670:	17c1                	addi	a5,a5,-16
   11672:	ff040693          	addi	a3,s0,-16
   11676:	97b6                	add	a5,a5,a3
   11678:	02878087          	vl1r.v	v1,(a5)
   1167c:	028700a7          	vs1r.v	v1,(a4)
   11680:	c2202773          	csrr	a4,vlenb
   11684:	fc700793          	li	a5,-57
   11688:	02f707b3          	mul	a5,a4,a5
   1168c:	fd878793          	addi	a5,a5,-40
   11690:	ff040713          	addi	a4,s0,-16
   11694:	00f706b3          	add	a3,a4,a5
   11698:	c2202773          	csrr	a4,vlenb
   1169c:	fc600793          	li	a5,-58
   116a0:	02f707b3          	mul	a5,a4,a5
   116a4:	fd878793          	addi	a5,a5,-40
   116a8:	ff040713          	addi	a4,s0,-16
   116ac:	973e                	add	a4,a4,a5
   116ae:	c2202673          	csrr	a2,vlenb
   116b2:	fc500793          	li	a5,-59
   116b6:	02f607b3          	mul	a5,a2,a5
   116ba:	fd878793          	addi	a5,a5,-40
   116be:	ff040613          	addi	a2,s0,-16
   116c2:	97b2                	add	a5,a5,a2
   116c4:	22868107          	vl2r.v	v2,(a3)
   116c8:	02870207          	vl1r.v	v4,(a4)
   116cc:	02878087          	vl1r.v	v1,(a5)
   116d0:	00807057          	vsetvli	zero,zero,e16,m1,tu,mu,d1
   116d4:	9e20b157          	vmv2r.v	v2,v2
   116d8:	f2121157          	vfwmacc.vv	v2,v4,v1
   116dc:	9e20b157          	vmv2r.v	v2,v2
   116e0:	9e20b157          	vmv2r.v	v2,v2
   116e4:	c2202773          	csrr	a4,vlenb
   116e8:	57bd                	li	a5,-17
   116ea:	02f707b3          	mul	a5,a4,a5
   116ee:	17c1                	addi	a5,a5,-16
   116f0:	ff040713          	addi	a4,s0,-16
   116f4:	97ba                	add	a5,a5,a4
   116f6:	22878127          	vs2r.v	v2,(a5)
   116fa:	fe442503          	lw	a0,-28(s0)
   116fe:	2319                	jal	11c04 <__truncsfhf2>
   11700:	862a                	mv	a2,a0
   11702:	c2202773          	csrr	a4,vlenb
   11706:	fca00793          	li	a5,-54
   1170a:	02f707b3          	mul	a5,a4,a5
   1170e:	1781                	addi	a5,a5,-32
   11710:	ff040713          	addi	a4,s0,-16
   11714:	973e                	add	a4,a4,a5
   11716:	c22026f3          	csrr	a3,vlenb
   1171a:	57e1                	li	a5,-8
   1171c:	02f687b3          	mul	a5,a3,a5
   11720:	17c1                	addi	a5,a5,-16
   11722:	ff040693          	addi	a3,s0,-16
   11726:	97b6                	add	a5,a5,a3
   11728:	22878107          	vl2r.v	v2,(a5)
   1172c:	22870127          	vs2r.v	v2,(a4)
   11730:	c2202773          	csrr	a4,vlenb
   11734:	fca00793          	li	a5,-54
   11738:	02f707b3          	mul	a5,a4,a5
   1173c:	fde78793          	addi	a5,a5,-34
   11740:	ff040713          	addi	a4,s0,-16
   11744:	97ba                	add	a5,a5,a4
   11746:	00c79023          	sh	a2,0(a5)
   1174a:	c2202773          	csrr	a4,vlenb
   1174e:	fc900793          	li	a5,-55
   11752:	02f707b3          	mul	a5,a4,a5
   11756:	fd878793          	addi	a5,a5,-40
   1175a:	ff040713          	addi	a4,s0,-16
   1175e:	973e                	add	a4,a4,a5
   11760:	c22026f3          	csrr	a3,vlenb
   11764:	fdf00793          	li	a5,-33
   11768:	02f687b3          	mul	a5,a3,a5
   1176c:	17c1                	addi	a5,a5,-16
   1176e:	ff040693          	addi	a3,s0,-16
   11772:	97b6                	add	a5,a5,a3
   11774:	02878087          	vl1r.v	v1,(a5)
   11778:	028700a7          	vs1r.v	v1,(a4)
   1177c:	c2202773          	csrr	a4,vlenb
   11780:	fca00793          	li	a5,-54
   11784:	02f707b3          	mul	a5,a4,a5
   11788:	1781                	addi	a5,a5,-32
   1178a:	ff040713          	addi	a4,s0,-16
   1178e:	00f706b3          	add	a3,a4,a5
   11792:	c2202773          	csrr	a4,vlenb
   11796:	fca00793          	li	a5,-54
   1179a:	02f707b3          	mul	a5,a4,a5
   1179e:	fde78793          	addi	a5,a5,-34
   117a2:	ff040713          	addi	a4,s0,-16
   117a6:	973e                	add	a4,a4,a5
   117a8:	c2202673          	csrr	a2,vlenb
   117ac:	fc900793          	li	a5,-55
   117b0:	02f607b3          	mul	a5,a2,a5
   117b4:	fd878793          	addi	a5,a5,-40
   117b8:	ff040613          	addi	a2,s0,-16
   117bc:	97b2                	add	a5,a5,a2
   117be:	22868107          	vl2r.v	v2,(a3)
   117c2:	00075703          	lhu	a4,0(a4)
   117c6:	02878087          	vl1r.v	v1,(a5)
   117ca:	00807057          	vsetvli	zero,zero,e16,m1,tu,mu,d1
   117ce:	9e20b157          	vmv2r.v	v2,v2
   117d2:	f00707d3          	fmv.w.x	fa5,a4
   117d6:	f217d157          	vfwmacc.vf	v2,fa5,v1
   117da:	9e20b157          	vmv2r.v	v2,v2
   117de:	9e20b157          	vmv2r.v	v2,v2
   117e2:	c2202773          	csrr	a4,vlenb
   117e6:	57bd                	li	a5,-17
   117e8:	02f707b3          	mul	a5,a4,a5
   117ec:	17c1                	addi	a5,a5,-16
   117ee:	ff040713          	addi	a4,s0,-16
   117f2:	97ba                	add	a5,a5,a4
   117f4:	22878127          	vs2r.v	v2,(a5)
   117f8:	01107057          	vsetvli	zero,zero,e32,m2,tu,mu,d1
   117fc:	5208a157          	vid.v	v2
   11800:	9e20b157          	vmv2r.v	v2,v2
   11804:	c2202773          	csrr	a4,vlenb
   11808:	57a1                	li	a5,-24
   1180a:	02f707b3          	mul	a5,a4,a5
   1180e:	17c1                	addi	a5,a5,-16
   11810:	ff040713          	addi	a4,s0,-16
   11814:	97ba                	add	a5,a5,a4
   11816:	22878127          	vs2r.v	v2,(a5)
   1181a:	c2202773          	csrr	a4,vlenb
   1181e:	fcc00793          	li	a5,-52
   11822:	02f707b3          	mul	a5,a4,a5
   11826:	1781                	addi	a5,a5,-32
   11828:	ff040713          	addi	a4,s0,-16
   1182c:	973e                	add	a4,a4,a5
   1182e:	c22026f3          	csrr	a3,vlenb
   11832:	57e1                	li	a5,-8
   11834:	02f687b3          	mul	a5,a3,a5
   11838:	17c1                	addi	a5,a5,-16
   1183a:	ff040693          	addi	a3,s0,-16
   1183e:	97b6                	add	a5,a5,a3
   11840:	22878107          	vl2r.v	v2,(a5)
   11844:	22870127          	vs2r.v	v2,(a4)
   11848:	c2202773          	csrr	a4,vlenb
   1184c:	fcc00793          	li	a5,-52
   11850:	02f707b3          	mul	a5,a4,a5
   11854:	1781                	addi	a5,a5,-32
   11856:	ff040713          	addi	a4,s0,-16
   1185a:	97ba                	add	a5,a5,a4
   1185c:	22878107          	vl2r.v	v2,(a5)
   11860:	01107057          	vsetvli	zero,zero,e32,m2,tu,mu,d1
   11864:	422017d7          	vfmv.f.s	fa5,v2
   11868:	c2202773          	csrr	a4,vlenb
   1186c:	fde00793          	li	a5,-34
   11870:	02f707b3          	mul	a5,a4,a5
   11874:	17b1                	addi	a5,a5,-20
   11876:	ff040713          	addi	a4,s0,-16
   1187a:	97ba                	add	a5,a5,a4
   1187c:	e39c                	fsw	fa5,0(a5)
   1187e:	c2202773          	csrr	a4,vlenb
   11882:	fce00793          	li	a5,-50
   11886:	02f707b3          	mul	a5,a4,a5
   1188a:	17a1                	addi	a5,a5,-24
   1188c:	ff040713          	addi	a4,s0,-16
   11890:	973e                	add	a4,a4,a5
   11892:	c22026f3          	csrr	a3,vlenb
   11896:	57e1                	li	a5,-8
   11898:	02f687b3          	mul	a5,a3,a5
   1189c:	17c1                	addi	a5,a5,-16
   1189e:	ff040693          	addi	a3,s0,-16
   118a2:	97b6                	add	a5,a5,a3
   118a4:	22878107          	vl2r.v	v2,(a5)
   118a8:	22870127          	vs2r.v	v2,(a4)
   118ac:	c2202773          	csrr	a4,vlenb
   118b0:	fce00793          	li	a5,-50
   118b4:	02f707b3          	mul	a5,a4,a5
   118b8:	1791                	addi	a5,a5,-28
   118ba:	ff040713          	addi	a4,s0,-16
   118be:	973e                	add	a4,a4,a5
   118c0:	c22026f3          	csrr	a3,vlenb
   118c4:	fde00793          	li	a5,-34
   118c8:	02f687b3          	mul	a5,a3,a5
   118cc:	17b1                	addi	a5,a5,-20
   118ce:	ff040693          	addi	a3,s0,-16
   118d2:	97b6                	add	a5,a5,a3
   118d4:	639c                	flw	fa5,0(a5)
   118d6:	e31c                	fsw	fa5,0(a4)
   118d8:	c2202773          	csrr	a4,vlenb
   118dc:	fce00793          	li	a5,-50
   118e0:	02f707b3          	mul	a5,a4,a5
   118e4:	17a1                	addi	a5,a5,-24
   118e6:	ff040713          	addi	a4,s0,-16
   118ea:	973e                	add	a4,a4,a5
   118ec:	c22026f3          	csrr	a3,vlenb
   118f0:	fce00793          	li	a5,-50
   118f4:	02f687b3          	mul	a5,a3,a5
   118f8:	1791                	addi	a5,a5,-28
   118fa:	ff040693          	addi	a3,s0,-16
   118fe:	97b6                	add	a5,a5,a3
   11900:	22870107          	vl2r.v	v2,(a4)
   11904:	639c                	flw	fa5,0(a5)
   11906:	01107057          	vsetvli	zero,zero,e32,m2,tu,mu,d1
   1190a:	4207d157          	vfmv.s.f	v2,fa5
   1190e:	9e20b157          	vmv2r.v	v2,v2
   11912:	c2202773          	csrr	a4,vlenb
   11916:	57bd                	li	a5,-17
   11918:	02f707b3          	mul	a5,a4,a5
   1191c:	17c1                	addi	a5,a5,-16
   1191e:	ff040713          	addi	a4,s0,-16
   11922:	97ba                	add	a5,a5,a4
   11924:	22878127          	vs2r.v	v2,(a5)
   11928:	c2202773          	csrr	a4,vlenb
   1192c:	fd000793          	li	a5,-48
   11930:	02f707b3          	mul	a5,a4,a5
   11934:	17a1                	addi	a5,a5,-24
   11936:	ff040713          	addi	a4,s0,-16
   1193a:	973e                	add	a4,a4,a5
   1193c:	c22026f3          	csrr	a3,vlenb
   11940:	57e1                	li	a5,-8
   11942:	02f687b3          	mul	a5,a3,a5
   11946:	17c1                	addi	a5,a5,-16
   11948:	ff040693          	addi	a3,s0,-16
   1194c:	97b6                	add	a5,a5,a3
   1194e:	22878107          	vl2r.v	v2,(a5)
   11952:	22870127          	vs2r.v	v2,(a4)
   11956:	c2202773          	csrr	a4,vlenb
   1195a:	fd000793          	li	a5,-48
   1195e:	02f707b3          	mul	a5,a4,a5
   11962:	17a1                	addi	a5,a5,-24
   11964:	ff040713          	addi	a4,s0,-16
   11968:	97ba                	add	a5,a5,a4
   1196a:	22878107          	vl2r.v	v2,(a5)
   1196e:	01107057          	vsetvli	zero,zero,e32,m2,tu,mu,d1
   11972:	4e201157          	vfsqrt.v	v2,v2
   11976:	9e20b157          	vmv2r.v	v2,v2
   1197a:	c2202773          	csrr	a4,vlenb
   1197e:	57bd                	li	a5,-17
   11980:	02f707b3          	mul	a5,a4,a5
   11984:	17c1                	addi	a5,a5,-16
   11986:	ff040713          	addi	a4,s0,-16
   1198a:	97ba                	add	a5,a5,a4
   1198c:	22878127          	vs2r.v	v2,(a5)
   11990:	c2202773          	csrr	a4,vlenb
   11994:	fd200793          	li	a5,-46
   11998:	02f707b3          	mul	a5,a4,a5
   1199c:	17a1                	addi	a5,a5,-24
   1199e:	ff040713          	addi	a4,s0,-16
   119a2:	973e                	add	a4,a4,a5
   119a4:	c22026f3          	csrr	a3,vlenb
   119a8:	57e1                	li	a5,-8
   119aa:	02f687b3          	mul	a5,a3,a5
   119ae:	17c1                	addi	a5,a5,-16
   119b0:	ff040693          	addi	a3,s0,-16
   119b4:	97b6                	add	a5,a5,a3
   119b6:	22878107          	vl2r.v	v2,(a5)
   119ba:	22870127          	vs2r.v	v2,(a4)
   119be:	c2202773          	csrr	a4,vlenb
   119c2:	fd200793          	li	a5,-46
   119c6:	02f707b3          	mul	a5,a4,a5
   119ca:	17a1                	addi	a5,a5,-24
   119cc:	ff040713          	addi	a4,s0,-16
   119d0:	97ba                	add	a5,a5,a4
   119d2:	22878107          	vl2r.v	v2,(a5)
   119d6:	01107057          	vsetvli	zero,zero,e32,m2,tu,mu,d1
   119da:	4e281257          	vfclass.v	v4,v2
   119de:	9e40b157          	vmv2r.v	v2,v4
   119e2:	c2202773          	csrr	a4,vlenb
   119e6:	57a1                	li	a5,-24
   119e8:	02f707b3          	mul	a5,a4,a5
   119ec:	17c1                	addi	a5,a5,-16
   119ee:	ff040713          	addi	a4,s0,-16
   119f2:	97ba                	add	a5,a5,a4
   119f4:	22878127          	vs2r.v	v2,(a5)
   119f8:	c2202773          	csrr	a4,vlenb
   119fc:	fd600793          	li	a5,-42
   11a00:	02f707b3          	mul	a5,a4,a5
   11a04:	17a1                	addi	a5,a5,-24
   11a06:	ff040713          	addi	a4,s0,-16
   11a0a:	973e                	add	a4,a4,a5
   11a0c:	c22026f3          	csrr	a3,vlenb
   11a10:	57f9                	li	a5,-2
   11a12:	02f687b3          	mul	a5,a3,a5
   11a16:	17c1                	addi	a5,a5,-16
   11a18:	ff040693          	addi	a3,s0,-16
   11a1c:	97b6                	add	a5,a5,a3
   11a1e:	22878107          	vl2r.v	v2,(a5)
   11a22:	22870127          	vs2r.v	v2,(a4)
   11a26:	c2202773          	csrr	a4,vlenb
   11a2a:	fd400793          	li	a5,-44
   11a2e:	02f707b3          	mul	a5,a4,a5
   11a32:	17a1                	addi	a5,a5,-24
   11a34:	ff040713          	addi	a4,s0,-16
   11a38:	973e                	add	a4,a4,a5
   11a3a:	c22026f3          	csrr	a3,vlenb
   11a3e:	57f1                	li	a5,-4
   11a40:	02f687b3          	mul	a5,a3,a5
   11a44:	17c1                	addi	a5,a5,-16
   11a46:	ff040693          	addi	a3,s0,-16
   11a4a:	97b6                	add	a5,a5,a3
   11a4c:	22878107          	vl2r.v	v2,(a5)
   11a50:	22870127          	vs2r.v	v2,(a4)
   11a54:	c2202773          	csrr	a4,vlenb
   11a58:	fd600793          	li	a5,-42
   11a5c:	02f707b3          	mul	a5,a4,a5
   11a60:	17a1                	addi	a5,a5,-24
   11a62:	ff040713          	addi	a4,s0,-16
   11a66:	973e                	add	a4,a4,a5
   11a68:	c22026f3          	csrr	a3,vlenb
   11a6c:	fd400793          	li	a5,-44
   11a70:	02f687b3          	mul	a5,a3,a5
   11a74:	17a1                	addi	a5,a5,-24
   11a76:	ff040693          	addi	a3,s0,-16
   11a7a:	97b6                	add	a5,a5,a3
   11a7c:	22870207          	vl2r.v	v4,(a4)
   11a80:	22878107          	vl2r.v	v2,(a5)
   11a84:	01107057          	vsetvli	zero,zero,e32,m2,tu,mu,d1
   11a88:	0a410157          	vsub.vv	v2,v4,v2
   11a8c:	9e20b157          	vmv2r.v	v2,v2
   11a90:	c2202773          	csrr	a4,vlenb
   11a94:	57c9                	li	a5,-14
   11a96:	02f707b3          	mul	a5,a4,a5
   11a9a:	17c1                	addi	a5,a5,-16
   11a9c:	ff040713          	addi	a4,s0,-16
   11aa0:	97ba                	add	a5,a5,a4
   11aa2:	22878127          	vs2r.v	v2,(a5)
   11aa6:	c2202773          	csrr	a4,vlenb
   11aaa:	fda00793          	li	a5,-38
   11aae:	02f707b3          	mul	a5,a4,a5
   11ab2:	17a1                	addi	a5,a5,-24
   11ab4:	ff040713          	addi	a4,s0,-16
   11ab8:	973e                	add	a4,a4,a5
   11aba:	c22026f3          	csrr	a3,vlenb
   11abe:	57f9                	li	a5,-2
   11ac0:	02f687b3          	mul	a5,a3,a5
   11ac4:	17c1                	addi	a5,a5,-16
   11ac6:	ff040693          	addi	a3,s0,-16
   11aca:	97b6                	add	a5,a5,a3
   11acc:	22878107          	vl2r.v	v2,(a5)
   11ad0:	22870127          	vs2r.v	v2,(a4)
   11ad4:	c2202773          	csrr	a4,vlenb
   11ad8:	fd800793          	li	a5,-40
   11adc:	02f707b3          	mul	a5,a4,a5
   11ae0:	17a1                	addi	a5,a5,-24
   11ae2:	ff040713          	addi	a4,s0,-16
   11ae6:	973e                	add	a4,a4,a5
   11ae8:	c22026f3          	csrr	a3,vlenb
   11aec:	57f1                	li	a5,-4
   11aee:	02f687b3          	mul	a5,a3,a5
   11af2:	17c1                	addi	a5,a5,-16
   11af4:	ff040693          	addi	a3,s0,-16
   11af8:	97b6                	add	a5,a5,a3
   11afa:	22878107          	vl2r.v	v2,(a5)
   11afe:	22870127          	vs2r.v	v2,(a4)
   11b02:	c2202773          	csrr	a4,vlenb
   11b06:	fda00793          	li	a5,-38
   11b0a:	02f707b3          	mul	a5,a4,a5
   11b0e:	17a1                	addi	a5,a5,-24
   11b10:	ff040713          	addi	a4,s0,-16
   11b14:	973e                	add	a4,a4,a5
   11b16:	c22026f3          	csrr	a3,vlenb
   11b1a:	fd800793          	li	a5,-40
   11b1e:	02f687b3          	mul	a5,a3,a5
   11b22:	17a1                	addi	a5,a5,-24
   11b24:	ff040693          	addi	a3,s0,-16
   11b28:	97b6                	add	a5,a5,a3
   11b2a:	22870207          	vl2r.v	v4,(a4)
   11b2e:	22878107          	vl2r.v	v2,(a5)
   11b32:	01107057          	vsetvli	zero,zero,e32,m2,tu,mu,d1
   11b36:	26410157          	vand.vv	v2,v4,v2
   11b3a:	9e20b157          	vmv2r.v	v2,v2
   11b3e:	c2202773          	csrr	a4,vlenb
   11b42:	57c9                	li	a5,-14
   11b44:	02f707b3          	mul	a5,a4,a5
   11b48:	17c1                	addi	a5,a5,-16
   11b4a:	ff040713          	addi	a4,s0,-16
   11b4e:	97ba                	add	a5,a5,a4
   11b50:	22878127          	vs2r.v	v2,(a5)
   11b54:	c2202773          	csrr	a4,vlenb
   11b58:	fde00793          	li	a5,-34
   11b5c:	02f707b3          	mul	a5,a4,a5
   11b60:	17a1                	addi	a5,a5,-24
   11b62:	ff040713          	addi	a4,s0,-16
   11b66:	973e                	add	a4,a4,a5
   11b68:	c22026f3          	csrr	a3,vlenb
   11b6c:	f8800793          	li	a5,-120
   11b70:	02f687b3          	mul	a5,a3,a5
   11b74:	f4078793          	addi	a5,a5,-192
   11b78:	ff040693          	addi	a3,s0,-16
   11b7c:	97b6                	add	a5,a5,a3
   11b7e:	c31c                	sw	a5,0(a4)
   11b80:	c2202773          	csrr	a4,vlenb
   11b84:	fdc00793          	li	a5,-36
   11b88:	02f707b3          	mul	a5,a4,a5
   11b8c:	17a1                	addi	a5,a5,-24
   11b8e:	ff040713          	addi	a4,s0,-16
   11b92:	973e                	add	a4,a4,a5
   11b94:	c22026f3          	csrr	a3,vlenb
   11b98:	57c9                	li	a5,-14
   11b9a:	02f687b3          	mul	a5,a3,a5
   11b9e:	17c1                	addi	a5,a5,-16
   11ba0:	ff040693          	addi	a3,s0,-16
   11ba4:	97b6                	add	a5,a5,a3
   11ba6:	22878107          	vl2r.v	v2,(a5)
   11baa:	22870127          	vs2r.v	v2,(a4)
   11bae:	c2202773          	csrr	a4,vlenb
   11bb2:	fdc00793          	li	a5,-36
   11bb6:	02f707b3          	mul	a5,a4,a5
   11bba:	17a1                	addi	a5,a5,-24
   11bbc:	ff040713          	addi	a4,s0,-16
   11bc0:	973e                	add	a4,a4,a5
   11bc2:	c22026f3          	csrr	a3,vlenb
   11bc6:	fde00793          	li	a5,-34
   11bca:	02f687b3          	mul	a5,a3,a5
   11bce:	17a1                	addi	a5,a5,-24
   11bd0:	ff040693          	addi	a3,s0,-16
   11bd4:	97b6                	add	a5,a5,a3
   11bd6:	22870107          	vl2r.v	v2,(a4)
   11bda:	439c                	lw	a5,0(a5)
   11bdc:	01107057          	vsetvli	zero,zero,e32,m2,tu,mu,d1
   11be0:	0207e127          	vse32.v	v2,(a5)
   11be4:	0001                	nop
   11be6:	4781                	li	a5,0
   11be8:	853e                	mv	a0,a5
   11bea:	c2202373          	csrr	t1,vlenb
   11bee:	07800393          	li	t2,120
   11bf2:	02730333          	mul	t1,t1,t2
   11bf6:	911a                	add	sp,sp,t1
   11bf8:	6135                	addi	sp,sp,352
   11bfa:	40b2                	lw	ra,12(sp)
   11bfc:	4422                	lw	s0,8(sp)
   11bfe:	0141                	addi	sp,sp,16
   11c00:	8082                	ret
	...

00011c04 <__truncsfhf2>:
   11c04:	01755693          	srli	a3,a0,0x17
   11c08:	0ff6f693          	andi	a3,a3,255
   11c0c:	00168713          	addi	a4,a3,1
   11c10:	00951793          	slli	a5,a0,0x9
   11c14:	0fe77713          	andi	a4,a4,254
   11c18:	0097d613          	srli	a2,a5,0x9
   11c1c:	01f55513          	srli	a0,a0,0x1f
   11c20:	0067d793          	srli	a5,a5,0x6
   11c24:	06070263          	beqz	a4,11c88 <__truncsfhf2+0x84>
   11c28:	f9068713          	addi	a4,a3,-112
   11c2c:	01e00593          	li	a1,30
   11c30:	06e5ce63          	blt	a1,a4,11cac <__truncsfhf2+0xa8>
   11c34:	04e04063          	bgtz	a4,11c74 <__truncsfhf2+0x70>
   11c38:	ff600613          	li	a2,-10
   11c3c:	0cc74863          	blt	a4,a2,11d0c <__truncsfhf2+0x108>
   11c40:	04000637          	lui	a2,0x4000
   11c44:	00c7e7b3          	or	a5,a5,a2
   11c48:	00e00613          	li	a2,14
   11c4c:	40e60733          	sub	a4,a2,a4
   11c50:	fa268693          	addi	a3,a3,-94
   11c54:	00e7d733          	srl	a4,a5,a4
   11c58:	00d797b3          	sll	a5,a5,a3
   11c5c:	00f037b3          	snez	a5,a5
   11c60:	00f767b3          	or	a5,a4,a5
   11c64:	00000713          	li	a4,0
   11c68:	0077f693          	andi	a3,a5,7
   11c6c:	04068463          	beqz	a3,11cb4 <__truncsfhf2+0xb0>
   11c70:	0a40006f          	j	11d14 <__truncsfhf2+0x110>
   11c74:	01661693          	slli	a3,a2,0x16
   11c78:	00d7d793          	srli	a5,a5,0xd
   11c7c:	00d036b3          	snez	a3,a3
   11c80:	00d7e7b3          	or	a5,a5,a3
   11c84:	fe5ff06f          	j	11c68 <__truncsfhf2+0x64>
   11c88:	00069663          	bnez	a3,11c94 <__truncsfhf2+0x90>
   11c8c:	00f037b3          	snez	a5,a5
   11c90:	fd5ff06f          	j	11c64 <__truncsfhf2+0x60>
   11c94:	01f00713          	li	a4,31
   11c98:	00078e63          	beqz	a5,11cb4 <__truncsfhf2+0xb0>
   11c9c:	00d7d793          	srli	a5,a5,0xd
   11ca0:	ff87f793          	andi	a5,a5,-8
   11ca4:	000016b7          	lui	a3,0x1
   11ca8:	fd9ff06f          	j	11c80 <__truncsfhf2+0x7c>
   11cac:	00000793          	li	a5,0
   11cb0:	01f00713          	li	a4,31
   11cb4:	000026b7          	lui	a3,0x2
   11cb8:	00d7f6b3          	and	a3,a5,a3
   11cbc:	00068e63          	beqz	a3,11cd8 <__truncsfhf2+0xd4>
   11cc0:	00170713          	addi	a4,a4,1
   11cc4:	01f00693          	li	a3,31
   11cc8:	06d70063          	beq	a4,a3,11d28 <__truncsfhf2+0x124>
   11ccc:	ffffe6b7          	lui	a3,0xffffe
   11cd0:	fff68693          	addi	a3,a3,-1 # ffffdfff <__global_pointer$+0xfffea5ff>
   11cd4:	00d7f7b3          	and	a5,a5,a3
   11cd8:	01f00693          	li	a3,31
   11cdc:	0037d793          	srli	a5,a5,0x3
   11ce0:	00d71863          	bne	a4,a3,11cf0 <__truncsfhf2+0xec>
   11ce4:	00078663          	beqz	a5,11cf0 <__truncsfhf2+0xec>
   11ce8:	20000793          	li	a5,512
   11cec:	00000513          	li	a0,0
   11cf0:	01f77713          	andi	a4,a4,31
   11cf4:	00a71713          	slli	a4,a4,0xa
   11cf8:	3ff7f793          	andi	a5,a5,1023
   11cfc:	00f767b3          	or	a5,a4,a5
   11d00:	00f51513          	slli	a0,a0,0xf
   11d04:	00f56533          	or	a0,a0,a5
   11d08:	00008067          	ret
   11d0c:	00100793          	li	a5,1
   11d10:	00000713          	li	a4,0
   11d14:	00f7f693          	andi	a3,a5,15
   11d18:	00400613          	li	a2,4
   11d1c:	f8c68ce3          	beq	a3,a2,11cb4 <__truncsfhf2+0xb0>
   11d20:	00478793          	addi	a5,a5,4
   11d24:	f91ff06f          	j	11cb4 <__truncsfhf2+0xb0>
   11d28:	00000793          	li	a5,0
   11d2c:	fadff06f          	j	11cd8 <__truncsfhf2+0xd4>

00011d30 <exit>:
   11d30:	ff010113          	addi	sp,sp,-16
   11d34:	00000593          	li	a1,0
   11d38:	00812423          	sw	s0,8(sp)
   11d3c:	00112623          	sw	ra,12(sp)
   11d40:	00050413          	mv	s0,a0
   11d44:	194000ef          	jal	ra,11ed8 <__call_exitprocs>
   11d48:	c281a503          	lw	a0,-984(gp) # 13628 <_global_impure_ptr>
   11d4c:	03c52783          	lw	a5,60(a0)
   11d50:	00078463          	beqz	a5,11d58 <exit+0x28>
   11d54:	000780e7          	jalr	a5
   11d58:	00040513          	mv	a0,s0
   11d5c:	3a4000ef          	jal	ra,12100 <_exit>

00011d60 <__libc_init_array>:
   11d60:	ff010113          	addi	sp,sp,-16
   11d64:	00812423          	sw	s0,8(sp)
   11d68:	01212023          	sw	s2,0(sp)
   11d6c:	00013437          	lui	s0,0x13
   11d70:	00013937          	lui	s2,0x13
   11d74:	1f440793          	addi	a5,s0,500 # 131f4 <__init_array_start>
   11d78:	1f490913          	addi	s2,s2,500 # 131f4 <__init_array_start>
   11d7c:	40f90933          	sub	s2,s2,a5
   11d80:	00112623          	sw	ra,12(sp)
   11d84:	00912223          	sw	s1,4(sp)
   11d88:	40295913          	srai	s2,s2,0x2
   11d8c:	02090063          	beqz	s2,11dac <__libc_init_array+0x4c>
   11d90:	1f440413          	addi	s0,s0,500
   11d94:	00000493          	li	s1,0
   11d98:	00042783          	lw	a5,0(s0)
   11d9c:	00148493          	addi	s1,s1,1
   11da0:	00440413          	addi	s0,s0,4
   11da4:	000780e7          	jalr	a5
   11da8:	fe9918e3          	bne	s2,s1,11d98 <__libc_init_array+0x38>
   11dac:	00013437          	lui	s0,0x13
   11db0:	00013937          	lui	s2,0x13
   11db4:	1f440793          	addi	a5,s0,500 # 131f4 <__init_array_start>
   11db8:	1fc90913          	addi	s2,s2,508 # 131fc <__do_global_dtors_aux_fini_array_entry>
   11dbc:	40f90933          	sub	s2,s2,a5
   11dc0:	40295913          	srai	s2,s2,0x2
   11dc4:	02090063          	beqz	s2,11de4 <__libc_init_array+0x84>
   11dc8:	1f440413          	addi	s0,s0,500
   11dcc:	00000493          	li	s1,0
   11dd0:	00042783          	lw	a5,0(s0)
   11dd4:	00148493          	addi	s1,s1,1
   11dd8:	00440413          	addi	s0,s0,4
   11ddc:	000780e7          	jalr	a5
   11de0:	fe9918e3          	bne	s2,s1,11dd0 <__libc_init_array+0x70>
   11de4:	00c12083          	lw	ra,12(sp)
   11de8:	00812403          	lw	s0,8(sp)
   11dec:	00412483          	lw	s1,4(sp)
   11df0:	00012903          	lw	s2,0(sp)
   11df4:	01010113          	addi	sp,sp,16
   11df8:	00008067          	ret

00011dfc <memset>:
   11dfc:	00f00313          	li	t1,15
   11e00:	00050713          	mv	a4,a0
   11e04:	02c37e63          	bgeu	t1,a2,11e40 <memset+0x44>
   11e08:	00f77793          	andi	a5,a4,15
   11e0c:	0a079063          	bnez	a5,11eac <memset+0xb0>
   11e10:	08059263          	bnez	a1,11e94 <memset+0x98>
   11e14:	ff067693          	andi	a3,a2,-16
   11e18:	00f67613          	andi	a2,a2,15
   11e1c:	00e686b3          	add	a3,a3,a4
   11e20:	00b72023          	sw	a1,0(a4)
   11e24:	00b72223          	sw	a1,4(a4)
   11e28:	00b72423          	sw	a1,8(a4)
   11e2c:	00b72623          	sw	a1,12(a4)
   11e30:	01070713          	addi	a4,a4,16
   11e34:	fed766e3          	bltu	a4,a3,11e20 <memset+0x24>
   11e38:	00061463          	bnez	a2,11e40 <memset+0x44>
   11e3c:	00008067          	ret
   11e40:	40c306b3          	sub	a3,t1,a2
   11e44:	00269693          	slli	a3,a3,0x2
   11e48:	00000297          	auipc	t0,0x0
   11e4c:	005686b3          	add	a3,a3,t0
   11e50:	00c68067          	jr	12(a3)
   11e54:	00b70723          	sb	a1,14(a4)
   11e58:	00b706a3          	sb	a1,13(a4)
   11e5c:	00b70623          	sb	a1,12(a4)
   11e60:	00b705a3          	sb	a1,11(a4)
   11e64:	00b70523          	sb	a1,10(a4)
   11e68:	00b704a3          	sb	a1,9(a4)
   11e6c:	00b70423          	sb	a1,8(a4)
   11e70:	00b703a3          	sb	a1,7(a4)
   11e74:	00b70323          	sb	a1,6(a4)
   11e78:	00b702a3          	sb	a1,5(a4)
   11e7c:	00b70223          	sb	a1,4(a4)
   11e80:	00b701a3          	sb	a1,3(a4)
   11e84:	00b70123          	sb	a1,2(a4)
   11e88:	00b700a3          	sb	a1,1(a4)
   11e8c:	00b70023          	sb	a1,0(a4)
   11e90:	00008067          	ret
   11e94:	0ff5f593          	andi	a1,a1,255
   11e98:	00859693          	slli	a3,a1,0x8
   11e9c:	00d5e5b3          	or	a1,a1,a3
   11ea0:	01059693          	slli	a3,a1,0x10
   11ea4:	00d5e5b3          	or	a1,a1,a3
   11ea8:	f6dff06f          	j	11e14 <memset+0x18>
   11eac:	00279693          	slli	a3,a5,0x2
   11eb0:	00000297          	auipc	t0,0x0
   11eb4:	005686b3          	add	a3,a3,t0
   11eb8:	00008293          	mv	t0,ra
   11ebc:	fa0680e7          	jalr	-96(a3)
   11ec0:	00028093          	mv	ra,t0
   11ec4:	ff078793          	addi	a5,a5,-16
   11ec8:	40f70733          	sub	a4,a4,a5
   11ecc:	00f60633          	add	a2,a2,a5
   11ed0:	f6c378e3          	bgeu	t1,a2,11e40 <memset+0x44>
   11ed4:	f3dff06f          	j	11e10 <memset+0x14>

00011ed8 <__call_exitprocs>:
   11ed8:	fd010113          	addi	sp,sp,-48
   11edc:	01412c23          	sw	s4,24(sp)
   11ee0:	c281aa03          	lw	s4,-984(gp) # 13628 <_global_impure_ptr>
   11ee4:	03212023          	sw	s2,32(sp)
   11ee8:	02112623          	sw	ra,44(sp)
   11eec:	148a2903          	lw	s2,328(s4)
   11ef0:	02812423          	sw	s0,40(sp)
   11ef4:	02912223          	sw	s1,36(sp)
   11ef8:	01312e23          	sw	s3,28(sp)
   11efc:	01512a23          	sw	s5,20(sp)
   11f00:	01612823          	sw	s6,16(sp)
   11f04:	01712623          	sw	s7,12(sp)
   11f08:	01812423          	sw	s8,8(sp)
   11f0c:	04090063          	beqz	s2,11f4c <__call_exitprocs+0x74>
   11f10:	00050b13          	mv	s6,a0
   11f14:	00058b93          	mv	s7,a1
   11f18:	00100a93          	li	s5,1
   11f1c:	fff00993          	li	s3,-1
   11f20:	00492483          	lw	s1,4(s2)
   11f24:	fff48413          	addi	s0,s1,-1
   11f28:	02044263          	bltz	s0,11f4c <__call_exitprocs+0x74>
   11f2c:	00249493          	slli	s1,s1,0x2
   11f30:	009904b3          	add	s1,s2,s1
   11f34:	040b8463          	beqz	s7,11f7c <__call_exitprocs+0xa4>
   11f38:	1044a783          	lw	a5,260(s1)
   11f3c:	05778063          	beq	a5,s7,11f7c <__call_exitprocs+0xa4>
   11f40:	fff40413          	addi	s0,s0,-1
   11f44:	ffc48493          	addi	s1,s1,-4
   11f48:	ff3416e3          	bne	s0,s3,11f34 <__call_exitprocs+0x5c>
   11f4c:	02c12083          	lw	ra,44(sp)
   11f50:	02812403          	lw	s0,40(sp)
   11f54:	02412483          	lw	s1,36(sp)
   11f58:	02012903          	lw	s2,32(sp)
   11f5c:	01c12983          	lw	s3,28(sp)
   11f60:	01812a03          	lw	s4,24(sp)
   11f64:	01412a83          	lw	s5,20(sp)
   11f68:	01012b03          	lw	s6,16(sp)
   11f6c:	00c12b83          	lw	s7,12(sp)
   11f70:	00812c03          	lw	s8,8(sp)
   11f74:	03010113          	addi	sp,sp,48
   11f78:	00008067          	ret
   11f7c:	00492783          	lw	a5,4(s2)
   11f80:	0044a683          	lw	a3,4(s1)
   11f84:	fff78793          	addi	a5,a5,-1
   11f88:	04878e63          	beq	a5,s0,11fe4 <__call_exitprocs+0x10c>
   11f8c:	0004a223          	sw	zero,4(s1)
   11f90:	fa0688e3          	beqz	a3,11f40 <__call_exitprocs+0x68>
   11f94:	18892783          	lw	a5,392(s2)
   11f98:	008a9733          	sll	a4,s5,s0
   11f9c:	00492c03          	lw	s8,4(s2)
   11fa0:	00f777b3          	and	a5,a4,a5
   11fa4:	02079263          	bnez	a5,11fc8 <__call_exitprocs+0xf0>
   11fa8:	000680e7          	jalr	a3
   11fac:	00492703          	lw	a4,4(s2)
   11fb0:	148a2783          	lw	a5,328(s4)
   11fb4:	01871463          	bne	a4,s8,11fbc <__call_exitprocs+0xe4>
   11fb8:	f92784e3          	beq	a5,s2,11f40 <__call_exitprocs+0x68>
   11fbc:	f80788e3          	beqz	a5,11f4c <__call_exitprocs+0x74>
   11fc0:	00078913          	mv	s2,a5
   11fc4:	f5dff06f          	j	11f20 <__call_exitprocs+0x48>
   11fc8:	18c92783          	lw	a5,396(s2)
   11fcc:	0844a583          	lw	a1,132(s1)
   11fd0:	00f77733          	and	a4,a4,a5
   11fd4:	00071c63          	bnez	a4,11fec <__call_exitprocs+0x114>
   11fd8:	000b0513          	mv	a0,s6
   11fdc:	000680e7          	jalr	a3
   11fe0:	fcdff06f          	j	11fac <__call_exitprocs+0xd4>
   11fe4:	00892223          	sw	s0,4(s2)
   11fe8:	fa9ff06f          	j	11f90 <__call_exitprocs+0xb8>
   11fec:	00058513          	mv	a0,a1
   11ff0:	000680e7          	jalr	a3
   11ff4:	fb9ff06f          	j	11fac <__call_exitprocs+0xd4>

00011ff8 <__libc_fini_array>:
   11ff8:	ff010113          	addi	sp,sp,-16
   11ffc:	00812423          	sw	s0,8(sp)
   12000:	000137b7          	lui	a5,0x13
   12004:	00013437          	lui	s0,0x13
   12008:	1fc40413          	addi	s0,s0,508 # 131fc <__do_global_dtors_aux_fini_array_entry>
   1200c:	20078793          	addi	a5,a5,512 # 13200 <impure_data>
   12010:	408787b3          	sub	a5,a5,s0
   12014:	00912223          	sw	s1,4(sp)
   12018:	00112623          	sw	ra,12(sp)
   1201c:	4027d493          	srai	s1,a5,0x2
   12020:	02048063          	beqz	s1,12040 <__libc_fini_array+0x48>
   12024:	ffc78793          	addi	a5,a5,-4
   12028:	00878433          	add	s0,a5,s0
   1202c:	00042783          	lw	a5,0(s0)
   12030:	fff48493          	addi	s1,s1,-1
   12034:	ffc40413          	addi	s0,s0,-4
   12038:	000780e7          	jalr	a5
   1203c:	fe0498e3          	bnez	s1,1202c <__libc_fini_array+0x34>
   12040:	00c12083          	lw	ra,12(sp)
   12044:	00812403          	lw	s0,8(sp)
   12048:	00412483          	lw	s1,4(sp)
   1204c:	01010113          	addi	sp,sp,16
   12050:	00008067          	ret

00012054 <atexit>:
   12054:	00050593          	mv	a1,a0
   12058:	00000693          	li	a3,0
   1205c:	00000613          	li	a2,0
   12060:	00000513          	li	a0,0
   12064:	0040006f          	j	12068 <__register_exitproc>

00012068 <__register_exitproc>:
   12068:	c281a703          	lw	a4,-984(gp) # 13628 <_global_impure_ptr>
   1206c:	14872783          	lw	a5,328(a4)
   12070:	04078c63          	beqz	a5,120c8 <__register_exitproc+0x60>
   12074:	0047a703          	lw	a4,4(a5)
   12078:	01f00813          	li	a6,31
   1207c:	06e84e63          	blt	a6,a4,120f8 <__register_exitproc+0x90>
   12080:	00271813          	slli	a6,a4,0x2
   12084:	02050663          	beqz	a0,120b0 <__register_exitproc+0x48>
   12088:	01078333          	add	t1,a5,a6
   1208c:	08c32423          	sw	a2,136(t1) # 101c0 <main+0x7c>
   12090:	1887a883          	lw	a7,392(a5)
   12094:	00100613          	li	a2,1
   12098:	00e61633          	sll	a2,a2,a4
   1209c:	00c8e8b3          	or	a7,a7,a2
   120a0:	1917a423          	sw	a7,392(a5)
   120a4:	10d32423          	sw	a3,264(t1)
   120a8:	00200693          	li	a3,2
   120ac:	02d50463          	beq	a0,a3,120d4 <__register_exitproc+0x6c>
   120b0:	00170713          	addi	a4,a4,1
   120b4:	00e7a223          	sw	a4,4(a5)
   120b8:	010787b3          	add	a5,a5,a6
   120bc:	00b7a423          	sw	a1,8(a5)
   120c0:	00000513          	li	a0,0
   120c4:	00008067          	ret
   120c8:	14c70793          	addi	a5,a4,332
   120cc:	14f72423          	sw	a5,328(a4)
   120d0:	fa5ff06f          	j	12074 <__register_exitproc+0xc>
   120d4:	18c7a683          	lw	a3,396(a5)
   120d8:	00170713          	addi	a4,a4,1
   120dc:	00e7a223          	sw	a4,4(a5)
   120e0:	00c6e633          	or	a2,a3,a2
   120e4:	18c7a623          	sw	a2,396(a5)
   120e8:	010787b3          	add	a5,a5,a6
   120ec:	00b7a423          	sw	a1,8(a5)
   120f0:	00000513          	li	a0,0
   120f4:	00008067          	ret
   120f8:	fff00513          	li	a0,-1
   120fc:	00008067          	ret

00012100 <_exit>:
   12100:	00000593          	li	a1,0
   12104:	00000613          	li	a2,0
   12108:	00000693          	li	a3,0
   1210c:	00000713          	li	a4,0
   12110:	00000793          	li	a5,0
   12114:	05d00893          	li	a7,93
   12118:	00000073          	ecall
   1211c:	00054463          	bltz	a0,12124 <_exit+0x24>
   12120:	0000006f          	j	12120 <_exit+0x20>
   12124:	ff010113          	addi	sp,sp,-16
   12128:	00812423          	sw	s0,8(sp)
   1212c:	00050413          	mv	s0,a0
   12130:	00112623          	sw	ra,12(sp)
   12134:	40800433          	neg	s0,s0
   12138:	00c000ef          	jal	ra,12144 <__errno>
   1213c:	00852023          	sw	s0,0(a0)
   12140:	0000006f          	j	12140 <_exit+0x40>

00012144 <__errno>:
   12144:	c301a503          	lw	a0,-976(gp) # 13630 <_impure_ptr>
   12148:	00008067          	ret
