
a.out:     file format elf32-littleriscv


Disassembly of section .text:

00010074 <register_fini>:
   10074:	00000793          	li	a5,0
   10078:	00078863          	beqz	a5,10088 <register_fini+0x14>
   1007c:	00012537          	lui	a0,0x12
   10080:	ff850513          	addi	a0,a0,-8 # 11ff8 <__libc_fini_array>
   10084:	7d10106f          	j	12054 <atexit>
   10088:	00008067          	ret

0001008c <_start>:
   1008c:	00004197          	auipc	gp,0x4
   10090:	97418193          	addi	gp,gp,-1676 # 13a00 <__global_pointer$>
   10094:	c3418513          	addi	a0,gp,-972 # 13634 <completed.1>
   10098:	c5018613          	addi	a2,gp,-944 # 13650 <__BSS_END__>
   1009c:	40a60633          	sub	a2,a2,a0
   100a0:	00000593          	li	a1,0
   100a4:	559010ef          	jal	ra,11dfc <memset>
   100a8:	00002517          	auipc	a0,0x2
   100ac:	fac50513          	addi	a0,a0,-84 # 12054 <atexit>
   100b0:	00050863          	beqz	a0,100c0 <_start+0x34>
   100b4:	00002517          	auipc	a0,0x2
   100b8:	f4450513          	addi	a0,a0,-188 # 11ff8 <__libc_fini_array>
   100bc:	799010ef          	jal	ra,12054 <atexit>
   100c0:	4a1010ef          	jal	ra,11d60 <__libc_init_array>
   100c4:	00012503          	lw	a0,0(sp)
   100c8:	00410593          	addi	a1,sp,4
   100cc:	00000613          	li	a2,0
   100d0:	074000ef          	jal	ra,10144 <main>
   100d4:	45d0106f          	j	11d30 <exit>

000100d8 <__do_global_dtors_aux>:
   100d8:	c341c703          	lbu	a4,-972(gp) # 13634 <completed.1>
   100dc:	04071263          	bnez	a4,10120 <__do_global_dtors_aux+0x48>
   100e0:	ff010113          	addi	sp,sp,-16
   100e4:	00812423          	sw	s0,8(sp)
   100e8:	00078413          	mv	s0,a5
   100ec:	00112623          	sw	ra,12(sp)
   100f0:	00000793          	li	a5,0
   100f4:	00078a63          	beqz	a5,10108 <__do_global_dtors_aux+0x30>
   100f8:	00013537          	lui	a0,0x13
   100fc:	1f050513          	addi	a0,a0,496 # 131f0 <__FRAME_END__>
   10100:	00000097          	auipc	ra,0x0
   10104:	000000e7          	jalr	zero # 0 <register_fini-0x10074>
   10108:	00100793          	li	a5,1
   1010c:	00c12083          	lw	ra,12(sp)
   10110:	c2f18a23          	sb	a5,-972(gp) # 13634 <completed.1>
   10114:	00812403          	lw	s0,8(sp)
   10118:	01010113          	addi	sp,sp,16
   1011c:	00008067          	ret
   10120:	00008067          	ret

00010124 <frame_dummy>:
   10124:	00000793          	li	a5,0
   10128:	00078c63          	beqz	a5,10140 <frame_dummy+0x1c>
   1012c:	00013537          	lui	a0,0x13
   10130:	c3818593          	addi	a1,gp,-968 # 13638 <object.0>
   10134:	1f050513          	addi	a0,a0,496 # 131f0 <__FRAME_END__>
   10138:	00000317          	auipc	t1,0x0
   1013c:	00000067          	jr	zero # 0 <register_fini-0x10074>
   10140:	00008067          	ret

00010144 <main>:
   10144:	1141                	addi	sp,sp,-16
   10146:	c606                	sw	ra,12(sp)
   10148:	c422                	sw	s0,8(sp)
   1014a:	0800                	addi	s0,sp,16
   1014c:	c2202373          	csrr	t1,vlenb
   10150:	f8800393          	li	t2,-120
   10154:	02730333          	mul	t1,t1,t2
   10158:	911a                	add	sp,sp,t1
   1015a:	710d                	addi	sp,sp,-352
   1015c:	47a1                	li	a5,8
   1015e:	fef42623          	sw	a5,-20(s0)
   10162:	c2202773          	csrr	a4,vlenb
   10166:	f8800793          	li	a5,-120
   1016a:	02f707b3          	mul	a5,a4,a5
   1016e:	f1878793          	addi	a5,a5,-232
   10172:	ff040713          	addi	a4,s0,-16
   10176:	97ba                	add	a5,a5,a4
   10178:	6749                	lui	a4,0x12
   1017a:	14c70713          	addi	a4,a4,332 # 1214c <__errno+0x8>
   1017e:	00072e83          	lw	t4,0(a4)
   10182:	00472e03          	lw	t3,4(a4)
   10186:	00872303          	lw	t1,8(a4)
   1018a:	00c72883          	lw	a7,12(a4)
   1018e:	01072803          	lw	a6,16(a4)
   10192:	4b48                	lw	a0,20(a4)
   10194:	4f0c                	lw	a1,24(a4)
   10196:	4f50                	lw	a2,28(a4)
   10198:	5314                	lw	a3,32(a4)
   1019a:	5358                	lw	a4,36(a4)
   1019c:	01d7a023          	sw	t4,0(a5)
   101a0:	01c7a223          	sw	t3,4(a5)
   101a4:	0067a423          	sw	t1,8(a5)
   101a8:	0117a623          	sw	a7,12(a5)
   101ac:	0107a823          	sw	a6,16(a5)
   101b0:	cbc8                	sw	a0,20(a5)
   101b2:	cf8c                	sw	a1,24(a5)
   101b4:	cfd0                	sw	a2,28(a5)
   101b6:	d394                	sw	a3,32(a5)
   101b8:	d3d8                	sw	a4,36(a5)
   101ba:	c2202773          	csrr	a4,vlenb
   101be:	f8800793          	li	a5,-120
   101c2:	02f707b3          	mul	a5,a4,a5
   101c6:	ef078793          	addi	a5,a5,-272
   101ca:	ff040713          	addi	a4,s0,-16
   101ce:	97ba                	add	a5,a5,a4
   101d0:	6749                	lui	a4,0x12
   101d2:	17470713          	addi	a4,a4,372 # 12174 <__errno+0x30>
   101d6:	00072e83          	lw	t4,0(a4)
   101da:	00472e03          	lw	t3,4(a4)
   101de:	00872303          	lw	t1,8(a4)
   101e2:	00c72883          	lw	a7,12(a4)
   101e6:	01072803          	lw	a6,16(a4)
   101ea:	4b48                	lw	a0,20(a4)
   101ec:	4f0c                	lw	a1,24(a4)
   101ee:	4f50                	lw	a2,28(a4)
   101f0:	5314                	lw	a3,32(a4)
   101f2:	5358                	lw	a4,36(a4)
   101f4:	01d7a023          	sw	t4,0(a5)
   101f8:	01c7a223          	sw	t3,4(a5)
   101fc:	0067a423          	sw	t1,8(a5)
   10200:	0117a623          	sw	a7,12(a5)
   10204:	0107a823          	sw	a6,16(a5)
   10208:	cbc8                	sw	a0,20(a5)
   1020a:	cf8c                	sw	a1,24(a5)
   1020c:	cfd0                	sw	a2,28(a5)
   1020e:	d394                	sw	a3,32(a5)
   10210:	d3d8                	sw	a4,36(a5)
   10212:	47c1                	li	a5,16
   10214:	fef42423          	sw	a5,-24(s0)
   10218:	c2202773          	csrr	a4,vlenb
   1021c:	f8800793          	li	a5,-120
   10220:	02f707b3          	mul	a5,a4,a5
   10224:	ec878793          	addi	a5,a5,-312
   10228:	ff040713          	addi	a4,s0,-16
   1022c:	97ba                	add	a5,a5,a4
   1022e:	6749                	lui	a4,0x12
   10230:	19c70713          	addi	a4,a4,412 # 1219c <__errno+0x58>
   10234:	00072e83          	lw	t4,0(a4)
   10238:	00472e03          	lw	t3,4(a4)
   1023c:	00872303          	lw	t1,8(a4)
   10240:	00c72883          	lw	a7,12(a4)
   10244:	01072803          	lw	a6,16(a4)
   10248:	4b48                	lw	a0,20(a4)
   1024a:	4f0c                	lw	a1,24(a4)
   1024c:	4f50                	lw	a2,28(a4)
   1024e:	5314                	lw	a3,32(a4)
   10250:	5358                	lw	a4,36(a4)
   10252:	01d7a023          	sw	t4,0(a5)
   10256:	01c7a223          	sw	t3,4(a5)
   1025a:	0067a423          	sw	t1,8(a5)
   1025e:	0117a623          	sw	a7,12(a5)
   10262:	0107a823          	sw	a6,16(a5)
   10266:	cbc8                	sw	a0,20(a5)
   10268:	cf8c                	sw	a1,24(a5)
   1026a:	cfd0                	sw	a2,28(a5)
   1026c:	d394                	sw	a3,32(a5)
   1026e:	d3d8                	sw	a4,36(a5)
   10270:	c2202773          	csrr	a4,vlenb
   10274:	f8800793          	li	a5,-120
   10278:	02f707b3          	mul	a5,a4,a5
   1027c:	ea078793          	addi	a5,a5,-352
   10280:	ff040713          	addi	a4,s0,-16
   10284:	97ba                	add	a5,a5,a4
   10286:	6749                	lui	a4,0x12
   10288:	1c470713          	addi	a4,a4,452 # 121c4 <__errno+0x80>
   1028c:	00072e83          	lw	t4,0(a4)
   10290:	00472e03          	lw	t3,4(a4)
   10294:	00872303          	lw	t1,8(a4)
   10298:	00c72883          	lw	a7,12(a4)
   1029c:	01072803          	lw	a6,16(a4)
   102a0:	4b48                	lw	a0,20(a4)
   102a2:	4f0c                	lw	a1,24(a4)
   102a4:	4f50                	lw	a2,28(a4)
   102a6:	5314                	lw	a3,32(a4)
   102a8:	5358                	lw	a4,36(a4)
   102aa:	01d7a023          	sw	t4,0(a5)
   102ae:	01c7a223          	sw	t3,4(a5)
   102b2:	0067a423          	sw	t1,8(a5)
   102b6:	0117a623          	sw	a7,12(a5)
   102ba:	0107a823          	sw	a6,16(a5)
   102be:	cbc8                	sw	a0,20(a5)
   102c0:	cf8c                	sw	a1,24(a5)
   102c2:	cfd0                	sw	a2,28(a5)
   102c4:	d394                	sw	a3,32(a5)
   102c6:	d3d8                	sw	a4,36(a5)
   102c8:	67c9                	lui	a5,0x12
   102ca:	1ec7a787          	flw	fa5,492(a5) # 121ec <__errno+0xa8>
   102ce:	fef42227          	fsw	fa5,-28(s0)
   102d2:	fec42703          	lw	a4,-20(s0)
   102d6:	c22026f3          	csrr	a3,vlenb
   102da:	f8800793          	li	a5,-120
   102de:	02f687b3          	mul	a5,a3,a5
   102e2:	f6c78793          	addi	a5,a5,-148
   102e6:	ff040693          	addi	a3,s0,-16
   102ea:	97b6                	add	a5,a5,a3
   102ec:	c398                	sw	a4,0(a5)
   102ee:	c2202773          	csrr	a4,vlenb
   102f2:	f8800793          	li	a5,-120
   102f6:	02f707b3          	mul	a5,a4,a5
   102fa:	f6878793          	addi	a5,a5,-152
   102fe:	ff040713          	addi	a4,s0,-16
   10302:	973e                	add	a4,a4,a5
   10304:	c22026f3          	csrr	a3,vlenb
   10308:	f8800793          	li	a5,-120
   1030c:	02f687b3          	mul	a5,a3,a5
   10310:	f6c78793          	addi	a5,a5,-148
   10314:	ff040693          	addi	a3,s0,-16
   10318:	97b6                	add	a5,a5,a3
   1031a:	439c                	lw	a5,0(a5)
   1031c:	0117f7d7          	vsetvli	a5,a5,e32,m2,tu,mu,d1
   10320:	c31c                	sw	a5,0(a4)
   10322:	c2202773          	csrr	a4,vlenb
   10326:	f8800793          	li	a5,-120
   1032a:	02f707b3          	mul	a5,a4,a5
   1032e:	f7078793          	addi	a5,a5,-144
   10332:	ff040713          	addi	a4,s0,-16
   10336:	973e                	add	a4,a4,a5
   10338:	c22026f3          	csrr	a3,vlenb
   1033c:	f8800793          	li	a5,-120
   10340:	02f687b3          	mul	a5,a3,a5
   10344:	f1878793          	addi	a5,a5,-232
   10348:	ff040693          	addi	a3,s0,-16
   1034c:	97b6                	add	a5,a5,a3
   1034e:	c31c                	sw	a5,0(a4)
   10350:	c2202773          	csrr	a4,vlenb
   10354:	f8800793          	li	a5,-120
   10358:	02f707b3          	mul	a5,a4,a5
   1035c:	f7078793          	addi	a5,a5,-144
   10360:	ff040713          	addi	a4,s0,-16
   10364:	97ba                	add	a5,a5,a4
   10366:	439c                	lw	a5,0(a5)
   10368:	01107057          	vsetvli	zero,zero,e32,m2,tu,mu,d1
   1036c:	0207e107          	vle32.v	v2,(a5)
   10370:	9e20b157          	vmv2r.v	v2,v2
   10374:	c2202773          	csrr	a4,vlenb
   10378:	57f9                	li	a5,-2
   1037a:	02f707b3          	mul	a5,a4,a5
   1037e:	17c1                	addi	a5,a5,-16
   10380:	ff040713          	addi	a4,s0,-16
   10384:	97ba                	add	a5,a5,a4
   10386:	22878127          	vs2r.v	v2,(a5)
   1038a:	c2202773          	csrr	a4,vlenb
   1038e:	f8800793          	li	a5,-120
   10392:	02f707b3          	mul	a5,a4,a5
   10396:	f7478793          	addi	a5,a5,-140
   1039a:	ff040713          	addi	a4,s0,-16
   1039e:	973e                	add	a4,a4,a5
   103a0:	c22026f3          	csrr	a3,vlenb
   103a4:	f8800793          	li	a5,-120
   103a8:	02f687b3          	mul	a5,a3,a5
   103ac:	ef078793          	addi	a5,a5,-272
   103b0:	ff040693          	addi	a3,s0,-16
   103b4:	97b6                	add	a5,a5,a3
   103b6:	c31c                	sw	a5,0(a4)
   103b8:	c2202773          	csrr	a4,vlenb
   103bc:	f8800793          	li	a5,-120
   103c0:	02f707b3          	mul	a5,a4,a5
   103c4:	f7478793          	addi	a5,a5,-140
   103c8:	ff040713          	addi	a4,s0,-16
   103cc:	97ba                	add	a5,a5,a4
   103ce:	439c                	lw	a5,0(a5)
   103d0:	01107057          	vsetvli	zero,zero,e32,m2,tu,mu,d1
   103d4:	0207e107          	vle32.v	v2,(a5)
   103d8:	9e20b157          	vmv2r.v	v2,v2
   103dc:	c2202773          	csrr	a4,vlenb
   103e0:	57f1                	li	a5,-4
   103e2:	02f707b3          	mul	a5,a4,a5
   103e6:	17c1                	addi	a5,a5,-16
   103e8:	ff040713          	addi	a4,s0,-16
   103ec:	97ba                	add	a5,a5,a4
   103ee:	22878127          	vs2r.v	v2,(a5)
   103f2:	c2202773          	csrr	a4,vlenb
   103f6:	f8800793          	li	a5,-120
   103fa:	02f707b3          	mul	a5,a4,a5
   103fe:	f7878793          	addi	a5,a5,-136
   10402:	ff040713          	addi	a4,s0,-16
   10406:	973e                	add	a4,a4,a5
   10408:	c22026f3          	csrr	a3,vlenb
   1040c:	f8800793          	li	a5,-120
   10410:	02f687b3          	mul	a5,a3,a5
   10414:	f1878793          	addi	a5,a5,-232
   10418:	ff040693          	addi	a3,s0,-16
   1041c:	97b6                	add	a5,a5,a3
   1041e:	c31c                	sw	a5,0(a4)
   10420:	c2202773          	csrr	a4,vlenb
   10424:	f8800793          	li	a5,-120
   10428:	02f707b3          	mul	a5,a4,a5
   1042c:	f7878793          	addi	a5,a5,-136
   10430:	ff040713          	addi	a4,s0,-16
   10434:	97ba                	add	a5,a5,a4
   10436:	439c                	lw	a5,0(a5)
   10438:	01007057          	vsetvli	zero,zero,e32,m1,tu,mu,d1
   1043c:	0207e087          	vle32.v	v1,(a5)
   10440:	9e1030d7          	vmv1r.v	v1,v1
   10444:	c2202773          	csrr	a4,vlenb
   10448:	57ed                	li	a5,-5
   1044a:	02f707b3          	mul	a5,a4,a5
   1044e:	17c1                	addi	a5,a5,-16
   10450:	ff040713          	addi	a4,s0,-16
   10454:	97ba                	add	a5,a5,a4
   10456:	028780a7          	vs1r.v	v1,(a5)
   1045a:	c2202773          	csrr	a4,vlenb
   1045e:	f8800793          	li	a5,-120
   10462:	02f707b3          	mul	a5,a4,a5
   10466:	f7c78793          	addi	a5,a5,-132
   1046a:	ff040713          	addi	a4,s0,-16
   1046e:	973e                	add	a4,a4,a5
   10470:	c22026f3          	csrr	a3,vlenb
   10474:	f8800793          	li	a5,-120
   10478:	02f687b3          	mul	a5,a3,a5
   1047c:	ef078793          	addi	a5,a5,-272
   10480:	ff040693          	addi	a3,s0,-16
   10484:	97b6                	add	a5,a5,a3
   10486:	c31c                	sw	a5,0(a4)
   10488:	c2202773          	csrr	a4,vlenb
   1048c:	f8800793          	li	a5,-120
   10490:	02f707b3          	mul	a5,a4,a5
   10494:	f7c78793          	addi	a5,a5,-132
   10498:	ff040713          	addi	a4,s0,-16
   1049c:	97ba                	add	a5,a5,a4
   1049e:	439c                	lw	a5,0(a5)
   104a0:	01007057          	vsetvli	zero,zero,e32,m1,tu,mu,d1
   104a4:	0207e087          	vle32.v	v1,(a5)
   104a8:	9e1030d7          	vmv1r.v	v1,v1
   104ac:	c2202773          	csrr	a4,vlenb
   104b0:	57e9                	li	a5,-6
   104b2:	02f707b3          	mul	a5,a4,a5
   104b6:	17c1                	addi	a5,a5,-16
   104b8:	ff040713          	addi	a4,s0,-16
   104bc:	97ba                	add	a5,a5,a4
   104be:	028780a7          	vs1r.v	v1,(a5)
   104c2:	c2202773          	csrr	a4,vlenb
   104c6:	f8800793          	li	a5,-120
   104ca:	02f707b3          	mul	a5,a4,a5
   104ce:	f8078793          	addi	a5,a5,-128
   104d2:	ff040713          	addi	a4,s0,-16
   104d6:	973e                	add	a4,a4,a5
   104d8:	c22026f3          	csrr	a3,vlenb
   104dc:	f8800793          	li	a5,-120
   104e0:	02f687b3          	mul	a5,a3,a5
   104e4:	ec878793          	addi	a5,a5,-312
   104e8:	ff040693          	addi	a3,s0,-16
   104ec:	97b6                	add	a5,a5,a3
   104ee:	c31c                	sw	a5,0(a4)
   104f0:	c2202773          	csrr	a4,vlenb
   104f4:	f8800793          	li	a5,-120
   104f8:	02f707b3          	mul	a5,a4,a5
   104fc:	f8078793          	addi	a5,a5,-128
   10500:	ff040713          	addi	a4,s0,-16
   10504:	97ba                	add	a5,a5,a4
   10506:	439c                	lw	a5,0(a5)
   10508:	01107057          	vsetvli	zero,zero,e32,m2,tu,mu,d1
   1050c:	0207e107          	vle32.v	v2,(a5)
   10510:	9e20b157          	vmv2r.v	v2,v2
   10514:	c2202773          	csrr	a4,vlenb
   10518:	57e1                	li	a5,-8
   1051a:	02f707b3          	mul	a5,a4,a5
   1051e:	17c1                	addi	a5,a5,-16
   10520:	ff040713          	addi	a4,s0,-16
   10524:	97ba                	add	a5,a5,a4
   10526:	22878127          	vs2r.v	v2,(a5)
   1052a:	c2202773          	csrr	a4,vlenb
   1052e:	f8800793          	li	a5,-120
   10532:	02f707b3          	mul	a5,a4,a5
   10536:	f8478793          	addi	a5,a5,-124
   1053a:	ff040713          	addi	a4,s0,-16
   1053e:	973e                	add	a4,a4,a5
   10540:	c22026f3          	csrr	a3,vlenb
   10544:	f8800793          	li	a5,-120
   10548:	02f687b3          	mul	a5,a3,a5
   1054c:	ea078793          	addi	a5,a5,-352
   10550:	ff040693          	addi	a3,s0,-16
   10554:	97b6                	add	a5,a5,a3
   10556:	c31c                	sw	a5,0(a4)
   10558:	c2202773          	csrr	a4,vlenb
   1055c:	f8800793          	li	a5,-120
   10560:	02f707b3          	mul	a5,a4,a5
   10564:	f8478793          	addi	a5,a5,-124
   10568:	ff040713          	addi	a4,s0,-16
   1056c:	97ba                	add	a5,a5,a4
   1056e:	439c                	lw	a5,0(a5)
   10570:	01107057          	vsetvli	zero,zero,e32,m2,tu,mu,d1
   10574:	0207e107          	vle32.v	v2,(a5)
   10578:	9e20b157          	vmv2r.v	v2,v2
   1057c:	c2202773          	csrr	a4,vlenb
   10580:	57d9                	li	a5,-10
   10582:	02f707b3          	mul	a5,a4,a5
   10586:	17c1                	addi	a5,a5,-16
   10588:	ff040713          	addi	a4,s0,-16
   1058c:	97ba                	add	a5,a5,a4
   1058e:	22878127          	vs2r.v	v2,(a5)
   10592:	c2202773          	csrr	a4,vlenb
   10596:	f8800793          	li	a5,-120
   1059a:	02f707b3          	mul	a5,a4,a5
   1059e:	f8878793          	addi	a5,a5,-120
   105a2:	ff040713          	addi	a4,s0,-16
   105a6:	973e                	add	a4,a4,a5
   105a8:	c22026f3          	csrr	a3,vlenb
   105ac:	f8800793          	li	a5,-120
   105b0:	02f687b3          	mul	a5,a3,a5
   105b4:	ec878793          	addi	a5,a5,-312
   105b8:	ff040693          	addi	a3,s0,-16
   105bc:	97b6                	add	a5,a5,a3
   105be:	c31c                	sw	a5,0(a4)
   105c0:	c2202773          	csrr	a4,vlenb
   105c4:	f8800793          	li	a5,-120
   105c8:	02f707b3          	mul	a5,a4,a5
   105cc:	f8878793          	addi	a5,a5,-120
   105d0:	ff040713          	addi	a4,s0,-16
   105d4:	97ba                	add	a5,a5,a4
   105d6:	439c                	lw	a5,0(a5)
   105d8:	01007057          	vsetvli	zero,zero,e32,m1,tu,mu,d1
   105dc:	0207e087          	vle32.v	v1,(a5)
   105e0:	9e1030d7          	vmv1r.v	v1,v1
   105e4:	c2202773          	csrr	a4,vlenb
   105e8:	57d5                	li	a5,-11
   105ea:	02f707b3          	mul	a5,a4,a5
   105ee:	17c1                	addi	a5,a5,-16
   105f0:	ff040713          	addi	a4,s0,-16
   105f4:	97ba                	add	a5,a5,a4
   105f6:	028780a7          	vs1r.v	v1,(a5)
   105fa:	c2202773          	csrr	a4,vlenb
   105fe:	f8800793          	li	a5,-120
   10602:	02f707b3          	mul	a5,a4,a5
   10606:	f8c78793          	addi	a5,a5,-116
   1060a:	ff040713          	addi	a4,s0,-16
   1060e:	973e                	add	a4,a4,a5
   10610:	c22026f3          	csrr	a3,vlenb
   10614:	f8800793          	li	a5,-120
   10618:	02f687b3          	mul	a5,a3,a5
   1061c:	ea078793          	addi	a5,a5,-352
   10620:	ff040693          	addi	a3,s0,-16
   10624:	97b6                	add	a5,a5,a3
   10626:	c31c                	sw	a5,0(a4)
   10628:	c2202773          	csrr	a4,vlenb
   1062c:	f8800793          	li	a5,-120
   10630:	02f707b3          	mul	a5,a4,a5
   10634:	f8c78793          	addi	a5,a5,-116
   10638:	ff040713          	addi	a4,s0,-16
   1063c:	97ba                	add	a5,a5,a4
   1063e:	439c                	lw	a5,0(a5)
   10640:	01007057          	vsetvli	zero,zero,e32,m1,tu,mu,d1
   10644:	0207e087          	vle32.v	v1,(a5)
   10648:	9e1030d7          	vmv1r.v	v1,v1
   1064c:	c2202773          	csrr	a4,vlenb
   10650:	57d1                	li	a5,-12
   10652:	02f707b3          	mul	a5,a4,a5
   10656:	17c1                	addi	a5,a5,-16
   10658:	ff040713          	addi	a4,s0,-16
   1065c:	97ba                	add	a5,a5,a4
   1065e:	028780a7          	vs1r.v	v1,(a5)
   10662:	c2202773          	csrr	a4,vlenb
   10666:	f8a00793          	li	a5,-118
   1066a:	02f707b3          	mul	a5,a4,a5
   1066e:	f9078793          	addi	a5,a5,-112
   10672:	ff040713          	addi	a4,s0,-16
   10676:	973e                	add	a4,a4,a5
   10678:	c22026f3          	csrr	a3,vlenb
   1067c:	57f9                	li	a5,-2
   1067e:	02f687b3          	mul	a5,a3,a5
   10682:	17c1                	addi	a5,a5,-16
   10684:	ff040693          	addi	a3,s0,-16
   10688:	97b6                	add	a5,a5,a3
   1068a:	22878107          	vl2r.v	v2,(a5)
   1068e:	22870127          	vs2r.v	v2,(a4)
   10692:	c2202773          	csrr	a4,vlenb
   10696:	f8800793          	li	a5,-120
   1069a:	02f707b3          	mul	a5,a4,a5
   1069e:	f9078793          	addi	a5,a5,-112
   106a2:	ff040713          	addi	a4,s0,-16
   106a6:	973e                	add	a4,a4,a5
   106a8:	c22026f3          	csrr	a3,vlenb
   106ac:	57f1                	li	a5,-4
   106ae:	02f687b3          	mul	a5,a3,a5
   106b2:	17c1                	addi	a5,a5,-16
   106b4:	ff040693          	addi	a3,s0,-16
   106b8:	97b6                	add	a5,a5,a3
   106ba:	22878107          	vl2r.v	v2,(a5)
   106be:	22870127          	vs2r.v	v2,(a4)
   106c2:	c2202773          	csrr	a4,vlenb
   106c6:	f8a00793          	li	a5,-118
   106ca:	02f707b3          	mul	a5,a4,a5
   106ce:	f9078793          	addi	a5,a5,-112
   106d2:	ff040713          	addi	a4,s0,-16
   106d6:	973e                	add	a4,a4,a5
   106d8:	c22026f3          	csrr	a3,vlenb
   106dc:	f8800793          	li	a5,-120
   106e0:	02f687b3          	mul	a5,a3,a5
   106e4:	f9078793          	addi	a5,a5,-112
   106e8:	ff040693          	addi	a3,s0,-16
   106ec:	97b6                	add	a5,a5,a3
   106ee:	22870207          	vl2r.v	v4,(a4)
   106f2:	22878107          	vl2r.v	v2,(a5)
   106f6:	01107057          	vsetvli	zero,zero,e32,m2,tu,mu,d1
   106fa:	02410157          	vadd.vv	v2,v4,v2
   106fe:	9e20b157          	vmv2r.v	v2,v2
   10702:	c2202773          	csrr	a4,vlenb
   10706:	57c9                	li	a5,-14
   10708:	02f707b3          	mul	a5,a4,a5
   1070c:	17c1                	addi	a5,a5,-16
   1070e:	ff040713          	addi	a4,s0,-16
   10712:	97ba                	add	a5,a5,a4
   10714:	22878127          	vs2r.v	v2,(a5)
   10718:	c2202773          	csrr	a4,vlenb
   1071c:	f8c00793          	li	a5,-116
   10720:	02f707b3          	mul	a5,a4,a5
   10724:	f9878793          	addi	a5,a5,-104
   10728:	ff040713          	addi	a4,s0,-16
   1072c:	973e                	add	a4,a4,a5
   1072e:	c22026f3          	csrr	a3,vlenb
   10732:	57f9                	li	a5,-2
   10734:	02f687b3          	mul	a5,a3,a5
   10738:	17c1                	addi	a5,a5,-16
   1073a:	ff040693          	addi	a3,s0,-16
   1073e:	97b6                	add	a5,a5,a3
   10740:	22878107          	vl2r.v	v2,(a5)
   10744:	22870127          	vs2r.v	v2,(a4)
   10748:	c2202773          	csrr	a4,vlenb
   1074c:	f8c00793          	li	a5,-116
   10750:	02f707b3          	mul	a5,a4,a5
   10754:	f9478793          	addi	a5,a5,-108
   10758:	ff040713          	addi	a4,s0,-16
   1075c:	97ba                	add	a5,a5,a4
   1075e:	fe842703          	lw	a4,-24(s0)
   10762:	c398                	sw	a4,0(a5)
   10764:	c2202773          	csrr	a4,vlenb
   10768:	f8c00793          	li	a5,-116
   1076c:	02f707b3          	mul	a5,a4,a5
   10770:	f9878793          	addi	a5,a5,-104
   10774:	ff040713          	addi	a4,s0,-16
   10778:	973e                	add	a4,a4,a5
   1077a:	c22026f3          	csrr	a3,vlenb
   1077e:	f8c00793          	li	a5,-116
   10782:	02f687b3          	mul	a5,a3,a5
   10786:	f9478793          	addi	a5,a5,-108
   1078a:	ff040693          	addi	a3,s0,-16
   1078e:	97b6                	add	a5,a5,a3
   10790:	22870107          	vl2r.v	v2,(a4)
   10794:	439c                	lw	a5,0(a5)
   10796:	01107057          	vsetvli	zero,zero,e32,m2,tu,mu,d1
   1079a:	0227c157          	vadd.vx	v2,v2,a5
   1079e:	9e20b157          	vmv2r.v	v2,v2
   107a2:	c2202773          	csrr	a4,vlenb
   107a6:	57c9                	li	a5,-14
   107a8:	02f707b3          	mul	a5,a4,a5
   107ac:	17c1                	addi	a5,a5,-16
   107ae:	ff040713          	addi	a4,s0,-16
   107b2:	97ba                	add	a5,a5,a4
   107b4:	22878127          	vs2r.v	v2,(a5)
   107b8:	c2202773          	csrr	a4,vlenb
   107bc:	f9100793          	li	a5,-111
   107c0:	02f707b3          	mul	a5,a4,a5
   107c4:	f9878793          	addi	a5,a5,-104
   107c8:	ff040713          	addi	a4,s0,-16
   107cc:	973e                	add	a4,a4,a5
   107ce:	c22026f3          	csrr	a3,vlenb
   107d2:	57ed                	li	a5,-5
   107d4:	02f687b3          	mul	a5,a3,a5
   107d8:	17c1                	addi	a5,a5,-16
   107da:	ff040693          	addi	a3,s0,-16
   107de:	97b6                	add	a5,a5,a3
   107e0:	02878087          	vl1r.v	v1,(a5)
   107e4:	028700a7          	vs1r.v	v1,(a4)
   107e8:	c2202773          	csrr	a4,vlenb
   107ec:	f8f00793          	li	a5,-113
   107f0:	02f707b3          	mul	a5,a4,a5
   107f4:	f9878793          	addi	a5,a5,-104
   107f8:	ff040713          	addi	a4,s0,-16
   107fc:	973e                	add	a4,a4,a5
   107fe:	c22026f3          	csrr	a3,vlenb
   10802:	57f9                	li	a5,-2
   10804:	02f687b3          	mul	a5,a3,a5
   10808:	17c1                	addi	a5,a5,-16
   1080a:	ff040693          	addi	a3,s0,-16
   1080e:	97b6                	add	a5,a5,a3
   10810:	22878107          	vl2r.v	v2,(a5)
   10814:	22870127          	vs2r.v	v2,(a4)
   10818:	c2202773          	csrr	a4,vlenb
   1081c:	f8e00793          	li	a5,-114
   10820:	02f707b3          	mul	a5,a4,a5
   10824:	f9878793          	addi	a5,a5,-104
   10828:	ff040713          	addi	a4,s0,-16
   1082c:	973e                	add	a4,a4,a5
   1082e:	c22026f3          	csrr	a3,vlenb
   10832:	57e9                	li	a5,-6
   10834:	02f687b3          	mul	a5,a3,a5
   10838:	17c1                	addi	a5,a5,-16
   1083a:	ff040693          	addi	a3,s0,-16
   1083e:	97b6                	add	a5,a5,a3
   10840:	02878087          	vl1r.v	v1,(a5)
   10844:	028700a7          	vs1r.v	v1,(a4)
   10848:	c2202773          	csrr	a4,vlenb
   1084c:	f9100793          	li	a5,-111
   10850:	02f707b3          	mul	a5,a4,a5
   10854:	f9878793          	addi	a5,a5,-104
   10858:	ff040713          	addi	a4,s0,-16
   1085c:	00f706b3          	add	a3,a4,a5
   10860:	c2202773          	csrr	a4,vlenb
   10864:	f8e00793          	li	a5,-114
   10868:	02f707b3          	mul	a5,a4,a5
   1086c:	f9878793          	addi	a5,a5,-104
   10870:	ff040713          	addi	a4,s0,-16
   10874:	973e                	add	a4,a4,a5
   10876:	c2202673          	csrr	a2,vlenb
   1087a:	f8f00793          	li	a5,-113
   1087e:	02f607b3          	mul	a5,a2,a5
   10882:	f9878793          	addi	a5,a5,-104
   10886:	ff040613          	addi	a2,s0,-16
   1088a:	97b2                	add	a5,a5,a2
   1088c:	02868087          	vl1r.v	v1,(a3)
   10890:	02870207          	vl1r.v	v4,(a4)
   10894:	22878107          	vl2r.v	v2,(a5)
   10898:	01107057          	vsetvli	zero,zero,e32,m2,tu,mu,d1
   1089c:	022220d7          	vredsum.vs	v1,v2,v4
   108a0:	9e1030d7          	vmv1r.v	v1,v1
   108a4:	c2202773          	csrr	a4,vlenb
   108a8:	57c5                	li	a5,-15
   108aa:	02f707b3          	mul	a5,a4,a5
   108ae:	17c1                	addi	a5,a5,-16
   108b0:	ff040713          	addi	a4,s0,-16
   108b4:	97ba                	add	a5,a5,a4
   108b6:	028780a7          	vs1r.v	v1,(a5)
   108ba:	c2202773          	csrr	a4,vlenb
   108be:	f9200793          	li	a5,-110
   108c2:	02f707b3          	mul	a5,a4,a5
   108c6:	fa078793          	addi	a5,a5,-96
   108ca:	ff040713          	addi	a4,s0,-16
   108ce:	973e                	add	a4,a4,a5
   108d0:	c22026f3          	csrr	a3,vlenb
   108d4:	57f9                	li	a5,-2
   108d6:	02f687b3          	mul	a5,a3,a5
   108da:	17c1                	addi	a5,a5,-16
   108dc:	ff040693          	addi	a3,s0,-16
   108e0:	97b6                	add	a5,a5,a3
   108e2:	22878107          	vl2r.v	v2,(a5)
   108e6:	22870127          	vs2r.v	v2,(a4)
   108ea:	c2202773          	csrr	a4,vlenb
   108ee:	f9200793          	li	a5,-110
   108f2:	02f707b3          	mul	a5,a4,a5
   108f6:	f9c78793          	addi	a5,a5,-100
   108fa:	ff040713          	addi	a4,s0,-16
   108fe:	97ba                	add	a5,a5,a4
   10900:	fe842703          	lw	a4,-24(s0)
   10904:	c398                	sw	a4,0(a5)
   10906:	c2202773          	csrr	a4,vlenb
   1090a:	f9200793          	li	a5,-110
   1090e:	02f707b3          	mul	a5,a4,a5
   10912:	fa078793          	addi	a5,a5,-96
   10916:	ff040713          	addi	a4,s0,-16
   1091a:	973e                	add	a4,a4,a5
   1091c:	c22026f3          	csrr	a3,vlenb
   10920:	f9200793          	li	a5,-110
   10924:	02f687b3          	mul	a5,a3,a5
   10928:	f9c78793          	addi	a5,a5,-100
   1092c:	ff040693          	addi	a3,s0,-16
   10930:	97b6                	add	a5,a5,a3
   10932:	22870107          	vl2r.v	v2,(a4)
   10936:	439c                	lw	a5,0(a5)
   10938:	01107057          	vsetvli	zero,zero,e32,m2,tu,mu,d1
   1093c:	3a27e257          	vslide1up.vx	v4,v2,a5
   10940:	9e40b157          	vmv2r.v	v2,v4
   10944:	c2202773          	csrr	a4,vlenb
   10948:	57c9                	li	a5,-14
   1094a:	02f707b3          	mul	a5,a4,a5
   1094e:	17c1                	addi	a5,a5,-16
   10950:	ff040713          	addi	a4,s0,-16
   10954:	97ba                	add	a5,a5,a4
   10956:	22878127          	vs2r.v	v2,(a5)
   1095a:	c2202773          	csrr	a4,vlenb
   1095e:	f9600793          	li	a5,-106
   10962:	02f707b3          	mul	a5,a4,a5
   10966:	fa078793          	addi	a5,a5,-96
   1096a:	ff040713          	addi	a4,s0,-16
   1096e:	973e                	add	a4,a4,a5
   10970:	c22026f3          	csrr	a3,vlenb
   10974:	57e1                	li	a5,-8
   10976:	02f687b3          	mul	a5,a3,a5
   1097a:	17c1                	addi	a5,a5,-16
   1097c:	ff040693          	addi	a3,s0,-16
   10980:	97b6                	add	a5,a5,a3
   10982:	22878107          	vl2r.v	v2,(a5)
   10986:	22870127          	vs2r.v	v2,(a4)
   1098a:	c2202773          	csrr	a4,vlenb
   1098e:	f9400793          	li	a5,-108
   10992:	02f707b3          	mul	a5,a4,a5
   10996:	fa078793          	addi	a5,a5,-96
   1099a:	ff040713          	addi	a4,s0,-16
   1099e:	973e                	add	a4,a4,a5
   109a0:	c22026f3          	csrr	a3,vlenb
   109a4:	57d9                	li	a5,-10
   109a6:	02f687b3          	mul	a5,a3,a5
   109aa:	17c1                	addi	a5,a5,-16
   109ac:	ff040693          	addi	a3,s0,-16
   109b0:	97b6                	add	a5,a5,a3
   109b2:	22878107          	vl2r.v	v2,(a5)
   109b6:	22870127          	vs2r.v	v2,(a4)
   109ba:	c2202773          	csrr	a4,vlenb
   109be:	f9600793          	li	a5,-106
   109c2:	02f707b3          	mul	a5,a4,a5
   109c6:	fa078793          	addi	a5,a5,-96
   109ca:	ff040713          	addi	a4,s0,-16
   109ce:	973e                	add	a4,a4,a5
   109d0:	c22026f3          	csrr	a3,vlenb
   109d4:	f9400793          	li	a5,-108
   109d8:	02f687b3          	mul	a5,a3,a5
   109dc:	fa078793          	addi	a5,a5,-96
   109e0:	ff040693          	addi	a3,s0,-16
   109e4:	97b6                	add	a5,a5,a3
   109e6:	22870207          	vl2r.v	v4,(a4)
   109ea:	22878107          	vl2r.v	v2,(a5)
   109ee:	01107057          	vsetvli	zero,zero,e32,m2,tu,mu,d1
   109f2:	02411157          	vfadd.vv	v2,v4,v2
   109f6:	9e20b157          	vmv2r.v	v2,v2
   109fa:	c2202773          	csrr	a4,vlenb
   109fe:	57bd                	li	a5,-17
   10a00:	02f707b3          	mul	a5,a4,a5
   10a04:	17c1                	addi	a5,a5,-16
   10a06:	ff040713          	addi	a4,s0,-16
   10a0a:	97ba                	add	a5,a5,a4
   10a0c:	22878127          	vs2r.v	v2,(a5)
   10a10:	c2202773          	csrr	a4,vlenb
   10a14:	f9800793          	li	a5,-104
   10a18:	02f707b3          	mul	a5,a4,a5
   10a1c:	fa878793          	addi	a5,a5,-88
   10a20:	ff040713          	addi	a4,s0,-16
   10a24:	973e                	add	a4,a4,a5
   10a26:	c22026f3          	csrr	a3,vlenb
   10a2a:	57e1                	li	a5,-8
   10a2c:	02f687b3          	mul	a5,a3,a5
   10a30:	17c1                	addi	a5,a5,-16
   10a32:	ff040693          	addi	a3,s0,-16
   10a36:	97b6                	add	a5,a5,a3
   10a38:	22878107          	vl2r.v	v2,(a5)
   10a3c:	22870127          	vs2r.v	v2,(a4)
   10a40:	c2202773          	csrr	a4,vlenb
   10a44:	f9800793          	li	a5,-104
   10a48:	02f707b3          	mul	a5,a4,a5
   10a4c:	fa478793          	addi	a5,a5,-92
   10a50:	ff040713          	addi	a4,s0,-16
   10a54:	97ba                	add	a5,a5,a4
   10a56:	fe442787          	flw	fa5,-28(s0)
   10a5a:	e39c                	fsw	fa5,0(a5)
   10a5c:	c2202773          	csrr	a4,vlenb
   10a60:	f9800793          	li	a5,-104
   10a64:	02f707b3          	mul	a5,a4,a5
   10a68:	fa878793          	addi	a5,a5,-88
   10a6c:	ff040713          	addi	a4,s0,-16
   10a70:	973e                	add	a4,a4,a5
   10a72:	c22026f3          	csrr	a3,vlenb
   10a76:	f9800793          	li	a5,-104
   10a7a:	02f687b3          	mul	a5,a3,a5
   10a7e:	fa478793          	addi	a5,a5,-92
   10a82:	ff040693          	addi	a3,s0,-16
   10a86:	97b6                	add	a5,a5,a3
   10a88:	22870107          	vl2r.v	v2,(a4)
   10a8c:	639c                	flw	fa5,0(a5)
   10a8e:	01107057          	vsetvli	zero,zero,e32,m2,tu,mu,d1
   10a92:	0227d157          	vfadd.vf	v2,v2,fa5
   10a96:	9e20b157          	vmv2r.v	v2,v2
   10a9a:	c2202773          	csrr	a4,vlenb
   10a9e:	57bd                	li	a5,-17
   10aa0:	02f707b3          	mul	a5,a4,a5
   10aa4:	17c1                	addi	a5,a5,-16
   10aa6:	ff040713          	addi	a4,s0,-16
   10aaa:	97ba                	add	a5,a5,a4
   10aac:	22878127          	vs2r.v	v2,(a5)
   10ab0:	c2202773          	csrr	a4,vlenb
   10ab4:	f9d00793          	li	a5,-99
   10ab8:	02f707b3          	mul	a5,a4,a5
   10abc:	fa878793          	addi	a5,a5,-88
   10ac0:	ff040713          	addi	a4,s0,-16
   10ac4:	973e                	add	a4,a4,a5
   10ac6:	c22026f3          	csrr	a3,vlenb
   10aca:	57d5                	li	a5,-11
   10acc:	02f687b3          	mul	a5,a3,a5
   10ad0:	17c1                	addi	a5,a5,-16
   10ad2:	ff040693          	addi	a3,s0,-16
   10ad6:	97b6                	add	a5,a5,a3
   10ad8:	02878087          	vl1r.v	v1,(a5)
   10adc:	028700a7          	vs1r.v	v1,(a4)
   10ae0:	c2202773          	csrr	a4,vlenb
   10ae4:	f9b00793          	li	a5,-101
   10ae8:	02f707b3          	mul	a5,a4,a5
   10aec:	fa878793          	addi	a5,a5,-88
   10af0:	ff040713          	addi	a4,s0,-16
   10af4:	973e                	add	a4,a4,a5
   10af6:	c22026f3          	csrr	a3,vlenb
   10afa:	57e1                	li	a5,-8
   10afc:	02f687b3          	mul	a5,a3,a5
   10b00:	17c1                	addi	a5,a5,-16
   10b02:	ff040693          	addi	a3,s0,-16
   10b06:	97b6                	add	a5,a5,a3
   10b08:	22878107          	vl2r.v	v2,(a5)
   10b0c:	22870127          	vs2r.v	v2,(a4)
   10b10:	c2202773          	csrr	a4,vlenb
   10b14:	f9a00793          	li	a5,-102
   10b18:	02f707b3          	mul	a5,a4,a5
   10b1c:	fa878793          	addi	a5,a5,-88
   10b20:	ff040713          	addi	a4,s0,-16
   10b24:	973e                	add	a4,a4,a5
   10b26:	c22026f3          	csrr	a3,vlenb
   10b2a:	57d1                	li	a5,-12
   10b2c:	02f687b3          	mul	a5,a3,a5
   10b30:	17c1                	addi	a5,a5,-16
   10b32:	ff040693          	addi	a3,s0,-16
   10b36:	97b6                	add	a5,a5,a3
   10b38:	02878087          	vl1r.v	v1,(a5)
   10b3c:	028700a7          	vs1r.v	v1,(a4)
   10b40:	c2202773          	csrr	a4,vlenb
   10b44:	f9d00793          	li	a5,-99
   10b48:	02f707b3          	mul	a5,a4,a5
   10b4c:	fa878793          	addi	a5,a5,-88
   10b50:	ff040713          	addi	a4,s0,-16
   10b54:	00f706b3          	add	a3,a4,a5
   10b58:	c2202773          	csrr	a4,vlenb
   10b5c:	f9a00793          	li	a5,-102
   10b60:	02f707b3          	mul	a5,a4,a5
   10b64:	fa878793          	addi	a5,a5,-88
   10b68:	ff040713          	addi	a4,s0,-16
   10b6c:	973e                	add	a4,a4,a5
   10b6e:	c2202673          	csrr	a2,vlenb
   10b72:	f9b00793          	li	a5,-101
   10b76:	02f607b3          	mul	a5,a2,a5
   10b7a:	fa878793          	addi	a5,a5,-88
   10b7e:	ff040613          	addi	a2,s0,-16
   10b82:	97b2                	add	a5,a5,a2
   10b84:	02868087          	vl1r.v	v1,(a3)
   10b88:	02870207          	vl1r.v	v4,(a4)
   10b8c:	22878107          	vl2r.v	v2,(a5)
   10b90:	01107057          	vsetvli	zero,zero,e32,m2,tu,mu,d1
   10b94:	062210d7          	vfredsum.vs	v1,v2,v4
   10b98:	9e1030d7          	vmv1r.v	v1,v1
   10b9c:	c2202773          	csrr	a4,vlenb
   10ba0:	57b9                	li	a5,-18
   10ba2:	02f707b3          	mul	a5,a4,a5
   10ba6:	17c1                	addi	a5,a5,-16
   10ba8:	ff040713          	addi	a4,s0,-16
   10bac:	97ba                	add	a5,a5,a4
   10bae:	028780a7          	vs1r.v	v1,(a5)
   10bb2:	c2202773          	csrr	a4,vlenb
   10bb6:	fa000793          	li	a5,-96
   10bba:	02f707b3          	mul	a5,a4,a5
   10bbe:	fa878793          	addi	a5,a5,-88
   10bc2:	ff040713          	addi	a4,s0,-16
   10bc6:	973e                	add	a4,a4,a5
   10bc8:	c22026f3          	csrr	a3,vlenb
   10bcc:	57b1                	li	a5,-20
   10bce:	02f687b3          	mul	a5,a3,a5
   10bd2:	17c1                	addi	a5,a5,-16
   10bd4:	ff040693          	addi	a3,s0,-16
   10bd8:	97b6                	add	a5,a5,a3
   10bda:	22878107          	vl2r.v	v2,(a5)
   10bde:	22870127          	vs2r.v	v2,(a4)
   10be2:	c2202773          	csrr	a4,vlenb
   10be6:	f9e00793          	li	a5,-98
   10bea:	02f707b3          	mul	a5,a4,a5
   10bee:	fa878793          	addi	a5,a5,-88
   10bf2:	ff040713          	addi	a4,s0,-16
   10bf6:	973e                	add	a4,a4,a5
   10bf8:	c22026f3          	csrr	a3,vlenb
   10bfc:	57a9                	li	a5,-22
   10bfe:	02f687b3          	mul	a5,a3,a5
   10c02:	17c1                	addi	a5,a5,-16
   10c04:	ff040693          	addi	a3,s0,-16
   10c08:	97b6                	add	a5,a5,a3
   10c0a:	22878107          	vl2r.v	v2,(a5)
   10c0e:	22870127          	vs2r.v	v2,(a4)
   10c12:	c2202773          	csrr	a4,vlenb
   10c16:	fa000793          	li	a5,-96
   10c1a:	02f707b3          	mul	a5,a4,a5
   10c1e:	fa878793          	addi	a5,a5,-88
   10c22:	ff040713          	addi	a4,s0,-16
   10c26:	973e                	add	a4,a4,a5
   10c28:	c22026f3          	csrr	a3,vlenb
   10c2c:	f9e00793          	li	a5,-98
   10c30:	02f687b3          	mul	a5,a3,a5
   10c34:	fa878793          	addi	a5,a5,-88
   10c38:	ff040693          	addi	a3,s0,-16
   10c3c:	97b6                	add	a5,a5,a3
   10c3e:	22870207          	vl2r.v	v4,(a4)
   10c42:	22878107          	vl2r.v	v2,(a5)
   10c46:	01107057          	vsetvli	zero,zero,e32,m2,tu,mu,d1
   10c4a:	82410157          	vsaddu.vv	v2,v4,v2
   10c4e:	9e20b157          	vmv2r.v	v2,v2
   10c52:	c2202773          	csrr	a4,vlenb
   10c56:	57a1                	li	a5,-24
   10c58:	02f707b3          	mul	a5,a4,a5
   10c5c:	17c1                	addi	a5,a5,-16
   10c5e:	ff040713          	addi	a4,s0,-16
   10c62:	97ba                	add	a5,a5,a4
   10c64:	22878127          	vs2r.v	v2,(a5)
   10c68:	fe842703          	lw	a4,-24(s0)
   10c6c:	c22026f3          	csrr	a3,vlenb
   10c70:	fa200793          	li	a5,-94
   10c74:	02f687b3          	mul	a5,a3,a5
   10c78:	fb078793          	addi	a5,a5,-80
   10c7c:	ff040693          	addi	a3,s0,-16
   10c80:	96be                	add	a3,a3,a5
   10c82:	c2202673          	csrr	a2,vlenb
   10c86:	57b1                	li	a5,-20
   10c88:	02f607b3          	mul	a5,a2,a5
   10c8c:	17c1                	addi	a5,a5,-16
   10c8e:	ff040613          	addi	a2,s0,-16
   10c92:	97b2                	add	a5,a5,a2
   10c94:	22878107          	vl2r.v	v2,(a5)
   10c98:	22868127          	vs2r.v	v2,(a3)
   10c9c:	c22026f3          	csrr	a3,vlenb
   10ca0:	fa200793          	li	a5,-94
   10ca4:	02f687b3          	mul	a5,a3,a5
   10ca8:	fac78793          	addi	a5,a5,-84
   10cac:	ff040693          	addi	a3,s0,-16
   10cb0:	97b6                	add	a5,a5,a3
   10cb2:	c398                	sw	a4,0(a5)
   10cb4:	c2202773          	csrr	a4,vlenb
   10cb8:	fa200793          	li	a5,-94
   10cbc:	02f707b3          	mul	a5,a4,a5
   10cc0:	fb078793          	addi	a5,a5,-80
   10cc4:	ff040713          	addi	a4,s0,-16
   10cc8:	973e                	add	a4,a4,a5
   10cca:	c22026f3          	csrr	a3,vlenb
   10cce:	fa200793          	li	a5,-94
   10cd2:	02f687b3          	mul	a5,a3,a5
   10cd6:	fac78793          	addi	a5,a5,-84
   10cda:	ff040693          	addi	a3,s0,-16
   10cde:	97b6                	add	a5,a5,a3
   10ce0:	22870107          	vl2r.v	v2,(a4)
   10ce4:	439c                	lw	a5,0(a5)
   10ce6:	01107057          	vsetvli	zero,zero,e32,m2,tu,mu,d1
   10cea:	8227c157          	vsaddu.vx	v2,v2,a5
   10cee:	9e20b157          	vmv2r.v	v2,v2
   10cf2:	c2202773          	csrr	a4,vlenb
   10cf6:	57a1                	li	a5,-24
   10cf8:	02f707b3          	mul	a5,a4,a5
   10cfc:	17c1                	addi	a5,a5,-16
   10cfe:	ff040713          	addi	a4,s0,-16
   10d02:	97ba                	add	a5,a5,a4
   10d04:	22878127          	vs2r.v	v2,(a5)
   10d08:	c2202773          	csrr	a4,vlenb
   10d0c:	fa600793          	li	a5,-90
   10d10:	02f707b3          	mul	a5,a4,a5
   10d14:	fb078793          	addi	a5,a5,-80
   10d18:	ff040713          	addi	a4,s0,-16
   10d1c:	973e                	add	a4,a4,a5
   10d1e:	c22026f3          	csrr	a3,vlenb
   10d22:	57b1                	li	a5,-20
   10d24:	02f687b3          	mul	a5,a3,a5
   10d28:	17c1                	addi	a5,a5,-16
   10d2a:	ff040693          	addi	a3,s0,-16
   10d2e:	97b6                	add	a5,a5,a3
   10d30:	22878107          	vl2r.v	v2,(a5)
   10d34:	22870127          	vs2r.v	v2,(a4)
   10d38:	c2202773          	csrr	a4,vlenb
   10d3c:	fa400793          	li	a5,-92
   10d40:	02f707b3          	mul	a5,a4,a5
   10d44:	fb078793          	addi	a5,a5,-80
   10d48:	ff040713          	addi	a4,s0,-16
   10d4c:	973e                	add	a4,a4,a5
   10d4e:	c22026f3          	csrr	a3,vlenb
   10d52:	57a9                	li	a5,-22
   10d54:	02f687b3          	mul	a5,a3,a5
   10d58:	17c1                	addi	a5,a5,-16
   10d5a:	ff040693          	addi	a3,s0,-16
   10d5e:	97b6                	add	a5,a5,a3
   10d60:	22878107          	vl2r.v	v2,(a5)
   10d64:	22870127          	vs2r.v	v2,(a4)
   10d68:	c2202773          	csrr	a4,vlenb
   10d6c:	fa600793          	li	a5,-90
   10d70:	02f707b3          	mul	a5,a4,a5
   10d74:	fb078793          	addi	a5,a5,-80
   10d78:	ff040713          	addi	a4,s0,-16
   10d7c:	973e                	add	a4,a4,a5
   10d7e:	c22026f3          	csrr	a3,vlenb
   10d82:	fa400793          	li	a5,-92
   10d86:	02f687b3          	mul	a5,a3,a5
   10d8a:	fb078793          	addi	a5,a5,-80
   10d8e:	ff040693          	addi	a3,s0,-16
   10d92:	97b6                	add	a5,a5,a3
   10d94:	22870207          	vl2r.v	v4,(a4)
   10d98:	22878107          	vl2r.v	v2,(a5)
   10d9c:	01107057          	vsetvli	zero,zero,e32,m2,tu,mu,d1
   10da0:	82412157          	vdivu.vv	v2,v4,v2
   10da4:	9e20b157          	vmv2r.v	v2,v2
   10da8:	c2202773          	csrr	a4,vlenb
   10dac:	57a1                	li	a5,-24
   10dae:	02f707b3          	mul	a5,a4,a5
   10db2:	17c1                	addi	a5,a5,-16
   10db4:	ff040713          	addi	a4,s0,-16
   10db8:	97ba                	add	a5,a5,a4
   10dba:	22878127          	vs2r.v	v2,(a5)
   10dbe:	fe842703          	lw	a4,-24(s0)
   10dc2:	c22026f3          	csrr	a3,vlenb
   10dc6:	fa800793          	li	a5,-88
   10dca:	02f687b3          	mul	a5,a3,a5
   10dce:	fb878793          	addi	a5,a5,-72
   10dd2:	ff040693          	addi	a3,s0,-16
   10dd6:	96be                	add	a3,a3,a5
   10dd8:	c2202673          	csrr	a2,vlenb
   10ddc:	57b1                	li	a5,-20
   10dde:	02f607b3          	mul	a5,a2,a5
   10de2:	17c1                	addi	a5,a5,-16
   10de4:	ff040613          	addi	a2,s0,-16
   10de8:	97b2                	add	a5,a5,a2
   10dea:	22878107          	vl2r.v	v2,(a5)
   10dee:	22868127          	vs2r.v	v2,(a3)
   10df2:	c22026f3          	csrr	a3,vlenb
   10df6:	fa800793          	li	a5,-88
   10dfa:	02f687b3          	mul	a5,a3,a5
   10dfe:	fb478793          	addi	a5,a5,-76
   10e02:	ff040693          	addi	a3,s0,-16
   10e06:	97b6                	add	a5,a5,a3
   10e08:	c398                	sw	a4,0(a5)
   10e0a:	c2202773          	csrr	a4,vlenb
   10e0e:	fa800793          	li	a5,-88
   10e12:	02f707b3          	mul	a5,a4,a5
   10e16:	fb878793          	addi	a5,a5,-72
   10e1a:	ff040713          	addi	a4,s0,-16
   10e1e:	973e                	add	a4,a4,a5
   10e20:	c22026f3          	csrr	a3,vlenb
   10e24:	fa800793          	li	a5,-88
   10e28:	02f687b3          	mul	a5,a3,a5
   10e2c:	fb478793          	addi	a5,a5,-76
   10e30:	ff040693          	addi	a3,s0,-16
   10e34:	97b6                	add	a5,a5,a3
   10e36:	22870107          	vl2r.v	v2,(a4)
   10e3a:	439c                	lw	a5,0(a5)
   10e3c:	01107057          	vsetvli	zero,zero,e32,m2,tu,mu,d1
   10e40:	8227e157          	vdivu.vx	v2,v2,a5
   10e44:	9e20b157          	vmv2r.v	v2,v2
   10e48:	c2202773          	csrr	a4,vlenb
   10e4c:	57a1                	li	a5,-24
   10e4e:	02f707b3          	mul	a5,a4,a5
   10e52:	17c1                	addi	a5,a5,-16
   10e54:	ff040713          	addi	a4,s0,-16
   10e58:	97ba                	add	a5,a5,a4
   10e5a:	22878127          	vs2r.v	v2,(a5)
   10e5e:	c2202773          	csrr	a4,vlenb
   10e62:	fac00793          	li	a5,-84
   10e66:	02f707b3          	mul	a5,a4,a5
   10e6a:	fb878793          	addi	a5,a5,-72
   10e6e:	ff040713          	addi	a4,s0,-16
   10e72:	973e                	add	a4,a4,a5
   10e74:	c22026f3          	csrr	a3,vlenb
   10e78:	57e1                	li	a5,-8
   10e7a:	02f687b3          	mul	a5,a3,a5
   10e7e:	17c1                	addi	a5,a5,-16
   10e80:	ff040693          	addi	a3,s0,-16
   10e84:	97b6                	add	a5,a5,a3
   10e86:	22878107          	vl2r.v	v2,(a5)
   10e8a:	22870127          	vs2r.v	v2,(a4)
   10e8e:	c2202773          	csrr	a4,vlenb
   10e92:	faa00793          	li	a5,-86
   10e96:	02f707b3          	mul	a5,a4,a5
   10e9a:	fb878793          	addi	a5,a5,-72
   10e9e:	ff040713          	addi	a4,s0,-16
   10ea2:	973e                	add	a4,a4,a5
   10ea4:	c22026f3          	csrr	a3,vlenb
   10ea8:	57d9                	li	a5,-10
   10eaa:	02f687b3          	mul	a5,a3,a5
   10eae:	17c1                	addi	a5,a5,-16
   10eb0:	ff040693          	addi	a3,s0,-16
   10eb4:	97b6                	add	a5,a5,a3
   10eb6:	22878107          	vl2r.v	v2,(a5)
   10eba:	22870127          	vs2r.v	v2,(a4)
   10ebe:	c2202773          	csrr	a4,vlenb
   10ec2:	fac00793          	li	a5,-84
   10ec6:	02f707b3          	mul	a5,a4,a5
   10eca:	fb878793          	addi	a5,a5,-72
   10ece:	ff040713          	addi	a4,s0,-16
   10ed2:	973e                	add	a4,a4,a5
   10ed4:	c22026f3          	csrr	a3,vlenb
   10ed8:	faa00793          	li	a5,-86
   10edc:	02f687b3          	mul	a5,a3,a5
   10ee0:	fb878793          	addi	a5,a5,-72
   10ee4:	ff040693          	addi	a3,s0,-16
   10ee8:	97b6                	add	a5,a5,a3
   10eea:	22870207          	vl2r.v	v4,(a4)
   10eee:	22878107          	vl2r.v	v2,(a5)
   10ef2:	01107057          	vsetvli	zero,zero,e32,m2,tu,mu,d1
   10ef6:	82411157          	vfdiv.vv	v2,v4,v2
   10efa:	9e20b157          	vmv2r.v	v2,v2
   10efe:	c2202773          	csrr	a4,vlenb
   10f02:	57bd                	li	a5,-17
   10f04:	02f707b3          	mul	a5,a4,a5
   10f08:	17c1                	addi	a5,a5,-16
   10f0a:	ff040713          	addi	a4,s0,-16
   10f0e:	97ba                	add	a5,a5,a4
   10f10:	22878127          	vs2r.v	v2,(a5)
   10f14:	c2202773          	csrr	a4,vlenb
   10f18:	fae00793          	li	a5,-82
   10f1c:	02f707b3          	mul	a5,a4,a5
   10f20:	fc078793          	addi	a5,a5,-64
   10f24:	ff040713          	addi	a4,s0,-16
   10f28:	973e                	add	a4,a4,a5
   10f2a:	c22026f3          	csrr	a3,vlenb
   10f2e:	57e1                	li	a5,-8
   10f30:	02f687b3          	mul	a5,a3,a5
   10f34:	17c1                	addi	a5,a5,-16
   10f36:	ff040693          	addi	a3,s0,-16
   10f3a:	97b6                	add	a5,a5,a3
   10f3c:	22878107          	vl2r.v	v2,(a5)
   10f40:	22870127          	vs2r.v	v2,(a4)
   10f44:	c2202773          	csrr	a4,vlenb
   10f48:	fae00793          	li	a5,-82
   10f4c:	02f707b3          	mul	a5,a4,a5
   10f50:	fbc78793          	addi	a5,a5,-68
   10f54:	ff040713          	addi	a4,s0,-16
   10f58:	97ba                	add	a5,a5,a4
   10f5a:	fe442787          	flw	fa5,-28(s0)
   10f5e:	e39c                	fsw	fa5,0(a5)
   10f60:	c2202773          	csrr	a4,vlenb
   10f64:	fae00793          	li	a5,-82
   10f68:	02f707b3          	mul	a5,a4,a5
   10f6c:	fc078793          	addi	a5,a5,-64
   10f70:	ff040713          	addi	a4,s0,-16
   10f74:	973e                	add	a4,a4,a5
   10f76:	c22026f3          	csrr	a3,vlenb
   10f7a:	fae00793          	li	a5,-82
   10f7e:	02f687b3          	mul	a5,a3,a5
   10f82:	fbc78793          	addi	a5,a5,-68
   10f86:	ff040693          	addi	a3,s0,-16
   10f8a:	97b6                	add	a5,a5,a3
   10f8c:	22870107          	vl2r.v	v2,(a4)
   10f90:	639c                	flw	fa5,0(a5)
   10f92:	01107057          	vsetvli	zero,zero,e32,m2,tu,mu,d1
   10f96:	8227d157          	vfdiv.vf	v2,v2,fa5
   10f9a:	9e20b157          	vmv2r.v	v2,v2
   10f9e:	c2202773          	csrr	a4,vlenb
   10fa2:	57bd                	li	a5,-17
   10fa4:	02f707b3          	mul	a5,a4,a5
   10fa8:	17c1                	addi	a5,a5,-16
   10faa:	ff040713          	addi	a4,s0,-16
   10fae:	97ba                	add	a5,a5,a4
   10fb0:	22878127          	vs2r.v	v2,(a5)
   10fb4:	c2202773          	csrr	a4,vlenb
   10fb8:	fb300793          	li	a5,-77
   10fbc:	02f707b3          	mul	a5,a4,a5
   10fc0:	fc078793          	addi	a5,a5,-64
   10fc4:	ff040713          	addi	a4,s0,-16
   10fc8:	973e                	add	a4,a4,a5
   10fca:	c22026f3          	csrr	a3,vlenb
   10fce:	579d                	li	a5,-25
   10fd0:	02f687b3          	mul	a5,a3,a5
   10fd4:	17c1                	addi	a5,a5,-16
   10fd6:	ff040693          	addi	a3,s0,-16
   10fda:	97b6                	add	a5,a5,a3
   10fdc:	02878087          	vl1r.v	v1,(a5)
   10fe0:	028700a7          	vs1r.v	v1,(a4)
   10fe4:	c2202773          	csrr	a4,vlenb
   10fe8:	fb100793          	li	a5,-79
   10fec:	02f707b3          	mul	a5,a4,a5
   10ff0:	fc078793          	addi	a5,a5,-64
   10ff4:	ff040713          	addi	a4,s0,-16
   10ff8:	973e                	add	a4,a4,a5
   10ffa:	c22026f3          	csrr	a3,vlenb
   10ffe:	57b1                	li	a5,-20
   11000:	02f687b3          	mul	a5,a3,a5
   11004:	17c1                	addi	a5,a5,-16
   11006:	ff040693          	addi	a3,s0,-16
   1100a:	97b6                	add	a5,a5,a3
   1100c:	22878107          	vl2r.v	v2,(a5)
   11010:	22870127          	vs2r.v	v2,(a4)
   11014:	c2202773          	csrr	a4,vlenb
   11018:	fb000793          	li	a5,-80
   1101c:	02f707b3          	mul	a5,a4,a5
   11020:	fc078793          	addi	a5,a5,-64
   11024:	ff040713          	addi	a4,s0,-16
   11028:	973e                	add	a4,a4,a5
   1102a:	c22026f3          	csrr	a3,vlenb
   1102e:	5799                	li	a5,-26
   11030:	02f687b3          	mul	a5,a3,a5
   11034:	17c1                	addi	a5,a5,-16
   11036:	ff040693          	addi	a3,s0,-16
   1103a:	97b6                	add	a5,a5,a3
   1103c:	02878087          	vl1r.v	v1,(a5)
   11040:	028700a7          	vs1r.v	v1,(a4)
   11044:	c2202773          	csrr	a4,vlenb
   11048:	fb300793          	li	a5,-77
   1104c:	02f707b3          	mul	a5,a4,a5
   11050:	fc078793          	addi	a5,a5,-64
   11054:	ff040713          	addi	a4,s0,-16
   11058:	00f706b3          	add	a3,a4,a5
   1105c:	c2202773          	csrr	a4,vlenb
   11060:	fb000793          	li	a5,-80
   11064:	02f707b3          	mul	a5,a4,a5
   11068:	fc078793          	addi	a5,a5,-64
   1106c:	ff040713          	addi	a4,s0,-16
   11070:	973e                	add	a4,a4,a5
   11072:	c2202673          	csrr	a2,vlenb
   11076:	fb100793          	li	a5,-79
   1107a:	02f607b3          	mul	a5,a2,a5
   1107e:	fc078793          	addi	a5,a5,-64
   11082:	ff040613          	addi	a2,s0,-16
   11086:	97b2                	add	a5,a5,a2
   11088:	02868087          	vl1r.v	v1,(a3)
   1108c:	02870207          	vl1r.v	v4,(a4)
   11090:	22878107          	vl2r.v	v2,(a5)
   11094:	01107057          	vsetvli	zero,zero,e32,m2,tu,mu,d1
   11098:	9e1030d7          	vmv1r.v	v1,v1
   1109c:	c22200d7          	vwredsumu.vs	v1,v2,v4
   110a0:	9e1030d7          	vmv1r.v	v1,v1
   110a4:	9e1030d7          	vmv1r.v	v1,v1
   110a8:	c2202773          	csrr	a4,vlenb
   110ac:	5795                	li	a5,-27
   110ae:	02f707b3          	mul	a5,a4,a5
   110b2:	17c1                	addi	a5,a5,-16
   110b4:	ff040713          	addi	a4,s0,-16
   110b8:	97ba                	add	a5,a5,a4
   110ba:	028780a7          	vs1r.v	v1,(a5)
   110be:	c2202773          	csrr	a4,vlenb
   110c2:	fb500793          	li	a5,-75
   110c6:	02f707b3          	mul	a5,a4,a5
   110ca:	fc078793          	addi	a5,a5,-64
   110ce:	ff040713          	addi	a4,s0,-16
   110d2:	973e                	add	a4,a4,a5
   110d4:	c22026f3          	csrr	a3,vlenb
   110d8:	5791                	li	a5,-28
   110da:	02f687b3          	mul	a5,a3,a5
   110de:	17c1                	addi	a5,a5,-16
   110e0:	ff040693          	addi	a3,s0,-16
   110e4:	97b6                	add	a5,a5,a3
   110e6:	02878087          	vl1r.v	v1,(a5)
   110ea:	028700a7          	vs1r.v	v1,(a4)
   110ee:	c2202773          	csrr	a4,vlenb
   110f2:	fb400793          	li	a5,-76
   110f6:	02f707b3          	mul	a5,a4,a5
   110fa:	fc078793          	addi	a5,a5,-64
   110fe:	ff040713          	addi	a4,s0,-16
   11102:	973e                	add	a4,a4,a5
   11104:	c22026f3          	csrr	a3,vlenb
   11108:	578d                	li	a5,-29
   1110a:	02f687b3          	mul	a5,a3,a5
   1110e:	17c1                	addi	a5,a5,-16
   11110:	ff040693          	addi	a3,s0,-16
   11114:	97b6                	add	a5,a5,a3
   11116:	02878087          	vl1r.v	v1,(a5)
   1111a:	028700a7          	vs1r.v	v1,(a4)
   1111e:	c2202773          	csrr	a4,vlenb
   11122:	fb500793          	li	a5,-75
   11126:	02f707b3          	mul	a5,a4,a5
   1112a:	fc078793          	addi	a5,a5,-64
   1112e:	ff040713          	addi	a4,s0,-16
   11132:	973e                	add	a4,a4,a5
   11134:	c22026f3          	csrr	a3,vlenb
   11138:	fb400793          	li	a5,-76
   1113c:	02f687b3          	mul	a5,a3,a5
   11140:	fc078793          	addi	a5,a5,-64
   11144:	ff040693          	addi	a3,s0,-16
   11148:	97b6                	add	a5,a5,a3
   1114a:	02870207          	vl1r.v	v4,(a4)
   1114e:	02878087          	vl1r.v	v1,(a5)
   11152:	00807057          	vsetvli	zero,zero,e16,m1,tu,mu,d1
   11156:	c240a157          	vwaddu.vv	v2,v4,v1
   1115a:	9e20b157          	vmv2r.v	v2,v2
   1115e:	c2202773          	csrr	a4,vlenb
   11162:	57a1                	li	a5,-24
   11164:	02f707b3          	mul	a5,a4,a5
   11168:	17c1                	addi	a5,a5,-16
   1116a:	ff040713          	addi	a4,s0,-16
   1116e:	97ba                	add	a5,a5,a4
   11170:	22878127          	vs2r.v	v2,(a5)
   11174:	fe842783          	lw	a5,-24(s0)
   11178:	01079713          	slli	a4,a5,0x10
   1117c:	8341                	srli	a4,a4,0x10
   1117e:	c22026f3          	csrr	a3,vlenb
   11182:	fb600793          	li	a5,-74
   11186:	02f687b3          	mul	a5,a3,a5
   1118a:	fc878793          	addi	a5,a5,-56
   1118e:	ff040693          	addi	a3,s0,-16
   11192:	96be                	add	a3,a3,a5
   11194:	c2202673          	csrr	a2,vlenb
   11198:	5791                	li	a5,-28
   1119a:	02f607b3          	mul	a5,a2,a5
   1119e:	17c1                	addi	a5,a5,-16
   111a0:	ff040613          	addi	a2,s0,-16
   111a4:	97b2                	add	a5,a5,a2
   111a6:	02878087          	vl1r.v	v1,(a5)
   111aa:	028680a7          	vs1r.v	v1,(a3)
   111ae:	c22026f3          	csrr	a3,vlenb
   111b2:	fb600793          	li	a5,-74
   111b6:	02f687b3          	mul	a5,a3,a5
   111ba:	fc678793          	addi	a5,a5,-58
   111be:	ff040693          	addi	a3,s0,-16
   111c2:	97b6                	add	a5,a5,a3
   111c4:	00e79023          	sh	a4,0(a5)
   111c8:	c2202773          	csrr	a4,vlenb
   111cc:	fb600793          	li	a5,-74
   111d0:	02f707b3          	mul	a5,a4,a5
   111d4:	fc878793          	addi	a5,a5,-56
   111d8:	ff040713          	addi	a4,s0,-16
   111dc:	973e                	add	a4,a4,a5
   111de:	c22026f3          	csrr	a3,vlenb
   111e2:	fb600793          	li	a5,-74
   111e6:	02f687b3          	mul	a5,a3,a5
   111ea:	fc678793          	addi	a5,a5,-58
   111ee:	ff040693          	addi	a3,s0,-16
   111f2:	97b6                	add	a5,a5,a3
   111f4:	02870087          	vl1r.v	v1,(a4)
   111f8:	0007d783          	lhu	a5,0(a5)
   111fc:	00807057          	vsetvli	zero,zero,e16,m1,tu,mu,d1
   11200:	c217e157          	vwaddu.vx	v2,v1,a5
   11204:	9e20b157          	vmv2r.v	v2,v2
   11208:	c2202773          	csrr	a4,vlenb
   1120c:	57a1                	li	a5,-24
   1120e:	02f707b3          	mul	a5,a4,a5
   11212:	17c1                	addi	a5,a5,-16
   11214:	ff040713          	addi	a4,s0,-16
   11218:	97ba                	add	a5,a5,a4
   1121a:	22878127          	vs2r.v	v2,(a5)
   1121e:	c2202773          	csrr	a4,vlenb
   11222:	fb800793          	li	a5,-72
   11226:	02f707b3          	mul	a5,a4,a5
   1122a:	fc878793          	addi	a5,a5,-56
   1122e:	ff040713          	addi	a4,s0,-16
   11232:	973e                	add	a4,a4,a5
   11234:	c22026f3          	csrr	a3,vlenb
   11238:	57b1                	li	a5,-20
   1123a:	02f687b3          	mul	a5,a3,a5
   1123e:	17c1                	addi	a5,a5,-16
   11240:	ff040693          	addi	a3,s0,-16
   11244:	97b6                	add	a5,a5,a3
   11246:	22878107          	vl2r.v	v2,(a5)
   1124a:	22870127          	vs2r.v	v2,(a4)
   1124e:	c2202773          	csrr	a4,vlenb
   11252:	fb700793          	li	a5,-73
   11256:	02f707b3          	mul	a5,a4,a5
   1125a:	fc878793          	addi	a5,a5,-56
   1125e:	ff040713          	addi	a4,s0,-16
   11262:	973e                	add	a4,a4,a5
   11264:	c22026f3          	csrr	a3,vlenb
   11268:	5791                	li	a5,-28
   1126a:	02f687b3          	mul	a5,a3,a5
   1126e:	17c1                	addi	a5,a5,-16
   11270:	ff040693          	addi	a3,s0,-16
   11274:	97b6                	add	a5,a5,a3
   11276:	02878087          	vl1r.v	v1,(a5)
   1127a:	028700a7          	vs1r.v	v1,(a4)
   1127e:	c2202773          	csrr	a4,vlenb
   11282:	fb800793          	li	a5,-72
   11286:	02f707b3          	mul	a5,a4,a5
   1128a:	fc878793          	addi	a5,a5,-56
   1128e:	ff040713          	addi	a4,s0,-16
   11292:	973e                	add	a4,a4,a5
   11294:	c22026f3          	csrr	a3,vlenb
   11298:	fb700793          	li	a5,-73
   1129c:	02f687b3          	mul	a5,a3,a5
   112a0:	fc878793          	addi	a5,a5,-56
   112a4:	ff040693          	addi	a3,s0,-16
   112a8:	97b6                	add	a5,a5,a3
   112aa:	22870107          	vl2r.v	v2,(a4)
   112ae:	02878087          	vl1r.v	v1,(a5)
   112b2:	00807057          	vsetvli	zero,zero,e16,m1,tu,mu,d1
   112b6:	d220a257          	vwaddu.wv	v4,v2,v1
   112ba:	9e40b157          	vmv2r.v	v2,v4
   112be:	c2202773          	csrr	a4,vlenb
   112c2:	57a1                	li	a5,-24
   112c4:	02f707b3          	mul	a5,a4,a5
   112c8:	17c1                	addi	a5,a5,-16
   112ca:	ff040713          	addi	a4,s0,-16
   112ce:	97ba                	add	a5,a5,a4
   112d0:	22878127          	vs2r.v	v2,(a5)
   112d4:	fe842783          	lw	a5,-24(s0)
   112d8:	01079713          	slli	a4,a5,0x10
   112dc:	8341                	srli	a4,a4,0x10
   112de:	c22026f3          	csrr	a3,vlenb
   112e2:	fba00793          	li	a5,-70
   112e6:	02f687b3          	mul	a5,a3,a5
   112ea:	fd078793          	addi	a5,a5,-48
   112ee:	ff040693          	addi	a3,s0,-16
   112f2:	96be                	add	a3,a3,a5
   112f4:	c2202673          	csrr	a2,vlenb
   112f8:	57b1                	li	a5,-20
   112fa:	02f607b3          	mul	a5,a2,a5
   112fe:	17c1                	addi	a5,a5,-16
   11300:	ff040613          	addi	a2,s0,-16
   11304:	97b2                	add	a5,a5,a2
   11306:	22878107          	vl2r.v	v2,(a5)
   1130a:	22868127          	vs2r.v	v2,(a3)
   1130e:	c22026f3          	csrr	a3,vlenb
   11312:	fba00793          	li	a5,-70
   11316:	02f687b3          	mul	a5,a3,a5
   1131a:	fce78793          	addi	a5,a5,-50
   1131e:	ff040693          	addi	a3,s0,-16
   11322:	97b6                	add	a5,a5,a3
   11324:	00e79023          	sh	a4,0(a5)
   11328:	c2202773          	csrr	a4,vlenb
   1132c:	fba00793          	li	a5,-70
   11330:	02f707b3          	mul	a5,a4,a5
   11334:	fd078793          	addi	a5,a5,-48
   11338:	ff040713          	addi	a4,s0,-16
   1133c:	973e                	add	a4,a4,a5
   1133e:	c22026f3          	csrr	a3,vlenb
   11342:	fba00793          	li	a5,-70
   11346:	02f687b3          	mul	a5,a3,a5
   1134a:	fce78793          	addi	a5,a5,-50
   1134e:	ff040693          	addi	a3,s0,-16
   11352:	97b6                	add	a5,a5,a3
   11354:	22870107          	vl2r.v	v2,(a4)
   11358:	0007d783          	lhu	a5,0(a5)
   1135c:	00807057          	vsetvli	zero,zero,e16,m1,tu,mu,d1
   11360:	d227e257          	vwaddu.wx	v4,v2,a5
   11364:	9e40b157          	vmv2r.v	v2,v4
   11368:	c2202773          	csrr	a4,vlenb
   1136c:	57a1                	li	a5,-24
   1136e:	02f707b3          	mul	a5,a4,a5
   11372:	17c1                	addi	a5,a5,-16
   11374:	ff040713          	addi	a4,s0,-16
   11378:	97ba                	add	a5,a5,a4
   1137a:	22878127          	vs2r.v	v2,(a5)
   1137e:	c2202773          	csrr	a4,vlenb
   11382:	fbf00793          	li	a5,-65
   11386:	02f707b3          	mul	a5,a4,a5
   1138a:	fd078793          	addi	a5,a5,-48
   1138e:	ff040713          	addi	a4,s0,-16
   11392:	973e                	add	a4,a4,a5
   11394:	c22026f3          	csrr	a3,vlenb
   11398:	5789                	li	a5,-30
   1139a:	02f687b3          	mul	a5,a3,a5
   1139e:	17c1                	addi	a5,a5,-16
   113a0:	ff040693          	addi	a3,s0,-16
   113a4:	97b6                	add	a5,a5,a3
   113a6:	02878087          	vl1r.v	v1,(a5)
   113aa:	028700a7          	vs1r.v	v1,(a4)
   113ae:	c2202773          	csrr	a4,vlenb
   113b2:	fbd00793          	li	a5,-67
   113b6:	02f707b3          	mul	a5,a4,a5
   113ba:	fd078793          	addi	a5,a5,-48
   113be:	ff040713          	addi	a4,s0,-16
   113c2:	973e                	add	a4,a4,a5
   113c4:	c22026f3          	csrr	a3,vlenb
   113c8:	57e1                	li	a5,-8
   113ca:	02f687b3          	mul	a5,a3,a5
   113ce:	17c1                	addi	a5,a5,-16
   113d0:	ff040693          	addi	a3,s0,-16
   113d4:	97b6                	add	a5,a5,a3
   113d6:	22878107          	vl2r.v	v2,(a5)
   113da:	22870127          	vs2r.v	v2,(a4)
   113de:	c2202773          	csrr	a4,vlenb
   113e2:	fbc00793          	li	a5,-68
   113e6:	02f707b3          	mul	a5,a4,a5
   113ea:	fd078793          	addi	a5,a5,-48
   113ee:	ff040713          	addi	a4,s0,-16
   113f2:	973e                	add	a4,a4,a5
   113f4:	c22026f3          	csrr	a3,vlenb
   113f8:	5785                	li	a5,-31
   113fa:	02f687b3          	mul	a5,a3,a5
   113fe:	17c1                	addi	a5,a5,-16
   11400:	ff040693          	addi	a3,s0,-16
   11404:	97b6                	add	a5,a5,a3
   11406:	02878087          	vl1r.v	v1,(a5)
   1140a:	028700a7          	vs1r.v	v1,(a4)
   1140e:	c2202773          	csrr	a4,vlenb
   11412:	fbf00793          	li	a5,-65
   11416:	02f707b3          	mul	a5,a4,a5
   1141a:	fd078793          	addi	a5,a5,-48
   1141e:	ff040713          	addi	a4,s0,-16
   11422:	00f706b3          	add	a3,a4,a5
   11426:	c2202773          	csrr	a4,vlenb
   1142a:	fbc00793          	li	a5,-68
   1142e:	02f707b3          	mul	a5,a4,a5
   11432:	fd078793          	addi	a5,a5,-48
   11436:	ff040713          	addi	a4,s0,-16
   1143a:	973e                	add	a4,a4,a5
   1143c:	c2202673          	csrr	a2,vlenb
   11440:	fbd00793          	li	a5,-67
   11444:	02f607b3          	mul	a5,a2,a5
   11448:	fd078793          	addi	a5,a5,-48
   1144c:	ff040613          	addi	a2,s0,-16
   11450:	97b2                	add	a5,a5,a2
   11452:	02868087          	vl1r.v	v1,(a3)
   11456:	02870207          	vl1r.v	v4,(a4)
   1145a:	22878107          	vl2r.v	v2,(a5)
   1145e:	01107057          	vsetvli	zero,zero,e32,m2,tu,mu,d1
   11462:	9e1030d7          	vmv1r.v	v1,v1
   11466:	c62210d7          	vfwredsum.vs	v1,v2,v4
   1146a:	9e1030d7          	vmv1r.v	v1,v1
   1146e:	9e1030d7          	vmv1r.v	v1,v1
   11472:	c2202773          	csrr	a4,vlenb
   11476:	5781                	li	a5,-32
   11478:	02f707b3          	mul	a5,a4,a5
   1147c:	17c1                	addi	a5,a5,-16
   1147e:	ff040713          	addi	a4,s0,-16
   11482:	97ba                	add	a5,a5,a4
   11484:	028780a7          	vs1r.v	v1,(a5)
   11488:	c2202773          	csrr	a4,vlenb
   1148c:	fc100793          	li	a5,-63
   11490:	02f707b3          	mul	a5,a4,a5
   11494:	fd078793          	addi	a5,a5,-48
   11498:	ff040713          	addi	a4,s0,-16
   1149c:	973e                	add	a4,a4,a5
   1149e:	c22026f3          	csrr	a3,vlenb
   114a2:	57e1                	li	a5,-8
   114a4:	02f687b3          	mul	a5,a3,a5
   114a8:	17c1                	addi	a5,a5,-16
   114aa:	ff040693          	addi	a3,s0,-16
   114ae:	97b6                	add	a5,a5,a3
   114b0:	22878107          	vl2r.v	v2,(a5)
   114b4:	22870127          	vs2r.v	v2,(a4)
   114b8:	c2202773          	csrr	a4,vlenb
   114bc:	fc000793          	li	a5,-64
   114c0:	02f707b3          	mul	a5,a4,a5
   114c4:	fd078793          	addi	a5,a5,-48
   114c8:	ff040713          	addi	a4,s0,-16
   114cc:	973e                	add	a4,a4,a5
   114ce:	c22026f3          	csrr	a3,vlenb
   114d2:	fdf00793          	li	a5,-33
   114d6:	02f687b3          	mul	a5,a3,a5
   114da:	17c1                	addi	a5,a5,-16
   114dc:	ff040693          	addi	a3,s0,-16
   114e0:	97b6                	add	a5,a5,a3
   114e2:	02878087          	vl1r.v	v1,(a5)
   114e6:	028700a7          	vs1r.v	v1,(a4)
   114ea:	c2202773          	csrr	a4,vlenb
   114ee:	fc100793          	li	a5,-63
   114f2:	02f707b3          	mul	a5,a4,a5
   114f6:	fd078793          	addi	a5,a5,-48
   114fa:	ff040713          	addi	a4,s0,-16
   114fe:	973e                	add	a4,a4,a5
   11500:	c22026f3          	csrr	a3,vlenb
   11504:	fc000793          	li	a5,-64
   11508:	02f687b3          	mul	a5,a3,a5
   1150c:	fd078793          	addi	a5,a5,-48
   11510:	ff040693          	addi	a3,s0,-16
   11514:	97b6                	add	a5,a5,a3
   11516:	22870107          	vl2r.v	v2,(a4)
   1151a:	02878087          	vl1r.v	v1,(a5)
   1151e:	00807057          	vsetvli	zero,zero,e16,m1,tu,mu,d1
   11522:	d2209257          	vfwadd.wv	v4,v2,v1
   11526:	9e40b157          	vmv2r.v	v2,v4
   1152a:	c2202773          	csrr	a4,vlenb
   1152e:	57bd                	li	a5,-17
   11530:	02f707b3          	mul	a5,a4,a5
   11534:	17c1                	addi	a5,a5,-16
   11536:	ff040713          	addi	a4,s0,-16
   1153a:	97ba                	add	a5,a5,a4
   1153c:	22878127          	vs2r.v	v2,(a5)
   11540:	fe442503          	lw	a0,-28(s0)
   11544:	25c1                	jal	11c04 <__truncsfhf2>
   11546:	862a                	mv	a2,a0
   11548:	c2202773          	csrr	a4,vlenb
   1154c:	fc300793          	li	a5,-61
   11550:	02f707b3          	mul	a5,a4,a5
   11554:	fd878793          	addi	a5,a5,-40
   11558:	ff040713          	addi	a4,s0,-16
   1155c:	973e                	add	a4,a4,a5
   1155e:	c22026f3          	csrr	a3,vlenb
   11562:	57e1                	li	a5,-8
   11564:	02f687b3          	mul	a5,a3,a5
   11568:	17c1                	addi	a5,a5,-16
   1156a:	ff040693          	addi	a3,s0,-16
   1156e:	97b6                	add	a5,a5,a3
   11570:	22878107          	vl2r.v	v2,(a5)
   11574:	22870127          	vs2r.v	v2,(a4)
   11578:	c2202773          	csrr	a4,vlenb
   1157c:	fc300793          	li	a5,-61
   11580:	02f707b3          	mul	a5,a4,a5
   11584:	fd678793          	addi	a5,a5,-42
   11588:	ff040713          	addi	a4,s0,-16
   1158c:	97ba                	add	a5,a5,a4
   1158e:	00c79023          	sh	a2,0(a5)
   11592:	c2202773          	csrr	a4,vlenb
   11596:	fc300793          	li	a5,-61
   1159a:	02f707b3          	mul	a5,a4,a5
   1159e:	fd878793          	addi	a5,a5,-40
   115a2:	ff040713          	addi	a4,s0,-16
   115a6:	973e                	add	a4,a4,a5
   115a8:	c22026f3          	csrr	a3,vlenb
   115ac:	fc300793          	li	a5,-61
   115b0:	02f687b3          	mul	a5,a3,a5
   115b4:	fd678793          	addi	a5,a5,-42
   115b8:	ff040693          	addi	a3,s0,-16
   115bc:	97b6                	add	a5,a5,a3
   115be:	22870107          	vl2r.v	v2,(a4)
   115c2:	0007d783          	lhu	a5,0(a5)
   115c6:	00807057          	vsetvli	zero,zero,e16,m1,tu,mu,d1
   115ca:	f00787d3          	fmv.w.x	fa5,a5
   115ce:	d227d257          	vfwadd.wf	v4,v2,fa5
   115d2:	9e40b157          	vmv2r.v	v2,v4
   115d6:	c2202773          	csrr	a4,vlenb
   115da:	57bd                	li	a5,-17
   115dc:	02f707b3          	mul	a5,a4,a5
   115e0:	17c1                	addi	a5,a5,-16
   115e2:	ff040713          	addi	a4,s0,-16
   115e6:	97ba                	add	a5,a5,a4
   115e8:	22878127          	vs2r.v	v2,(a5)
   115ec:	c2202773          	csrr	a4,vlenb
   115f0:	fc700793          	li	a5,-57
   115f4:	02f707b3          	mul	a5,a4,a5
   115f8:	fd878793          	addi	a5,a5,-40
   115fc:	ff040713          	addi	a4,s0,-16
   11600:	973e                	add	a4,a4,a5
   11602:	c22026f3          	csrr	a3,vlenb
   11606:	57e1                	li	a5,-8
   11608:	02f687b3          	mul	a5,a3,a5
   1160c:	17c1                	addi	a5,a5,-16
   1160e:	ff040693          	addi	a3,s0,-16
   11612:	97b6                	add	a5,a5,a3
   11614:	22878107          	vl2r.v	v2,(a5)
   11618:	22870127          	vs2r.v	v2,(a4)
   1161c:	c2202773          	csrr	a4,vlenb
   11620:	fc600793          	li	a5,-58
   11624:	02f707b3          	mul	a5,a4,a5
   11628:	fd878793          	addi	a5,a5,-40
   1162c:	ff040713          	addi	a4,s0,-16
   11630:	973e                	add	a4,a4,a5
   11632:	c22026f3          	csrr	a3,vlenb
   11636:	fdf00793          	li	a5,-33
   1163a:	02f687b3          	mul	a5,a3,a5
   1163e:	17c1                	addi	a5,a5,-16
   11640:	ff040693          	addi	a3,s0,-16
   11644:	97b6                	add	a5,a5,a3
   11646:	02878087          	vl1r.v	v1,(a5)
   1164a:	028700a7          	vs1r.v	v1,(a4)
   1164e:	c2202773          	csrr	a4,vlenb
   11652:	fc500793          	li	a5,-59
   11656:	02f707b3          	mul	a5,a4,a5
   1165a:	fd878793          	addi	a5,a5,-40
   1165e:	ff040713          	addi	a4,s0,-16
   11662:	973e                	add	a4,a4,a5
   11664:	c22026f3          	csrr	a3,vlenb
   11668:	fde00793          	li	a5,-34
   1166c:	02f687b3          	mul	a5,a3,a5
   11670:	17c1                	addi	a5,a5,-16
   11672:	ff040693          	addi	a3,s0,-16
   11676:	97b6                	add	a5,a5,a3
   11678:	02878087          	vl1r.v	v1,(a5)
   1167c:	028700a7          	vs1r.v	v1,(a4)
   11680:	c2202773          	csrr	a4,vlenb
   11684:	fc700793          	li	a5,-57
   11688:	02f707b3          	mul	a5,a4,a5
   1168c:	fd878793          	addi	a5,a5,-40
   11690:	ff040713          	addi	a4,s0,-16
   11694:	00f706b3          	add	a3,a4,a5
   11698:	c2202773          	csrr	a4,vlenb
   1169c:	fc600793          	li	a5,-58
   116a0:	02f707b3          	mul	a5,a4,a5
   116a4:	fd878793          	addi	a5,a5,-40
   116a8:	ff040713          	addi	a4,s0,-16
   116ac:	973e                	add	a4,a4,a5
   116ae:	c2202673          	csrr	a2,vlenb
   116b2:	fc500793          	li	a5,-59
   116b6:	02f607b3          	mul	a5,a2,a5
   116ba:	fd878793          	addi	a5,a5,-40
   116be:	ff040613          	addi	a2,s0,-16
   116c2:	97b2                	add	a5,a5,a2
   116c4:	22868107          	vl2r.v	v2,(a3)
   116c8:	02870207          	vl1r.v	v4,(a4)
   116cc:	02878087          	vl1r.v	v1,(a5)
   116d0:	00807057          	vsetvli	zero,zero,e16,m1,tu,mu,d1
   116d4:	9e20b157          	vmv2r.v	v2,v2
   116d8:	f2121157          	vfwmacc.vv	v2,v4,v1
   116dc:	9e20b157          	vmv2r.v	v2,v2
   116e0:	9e20b157          	vmv2r.v	v2,v2
   116e4:	c2202773          	csrr	a4,vlenb
   116e8:	57bd                	li	a5,-17
   116ea:	02f707b3          	mul	a5,a4,a5
   116ee:	17c1                	addi	a5,a5,-16
   116f0:	ff040713          	addi	a4,s0,-16
   116f4:	97ba                	add	a5,a5,a4
   116f6:	22878127          	vs2r.v	v2,(a5)
   116fa:	fe442503          	lw	a0,-28(s0)
   116fe:	2319                	jal	11c04 <__truncsfhf2>
   11700:	862a                	mv	a2,a0
   11702:	c2202773          	csrr	a4,vlenb
   11706:	fca00793          	li	a5,-54
   1170a:	02f707b3          	mul	a5,a4,a5
   1170e:	1781                	addi	a5,a5,-32
   11710:	ff040713          	addi	a4,s0,-16
   11714:	973e                	add	a4,a4,a5
   11716:	c22026f3          	csrr	a3,vlenb
   1171a:	57e1                	li	a5,-8
   1171c:	02f687b3          	mul	a5,a3,a5
   11720:	17c1                	addi	a5,a5,-16
   11722:	ff040693          	addi	a3,s0,-16
   11726:	97b6                	add	a5,a5,a3
   11728:	22878107          	vl2r.v	v2,(a5)
   1172c:	22870127          	vs2r.v	v2,(a4)
   11730:	c2202773          	csrr	a4,vlenb
   11734:	fca00793          	li	a5,-54
   11738:	02f707b3          	mul	a5,a4,a5
   1173c:	fde78793          	addi	a5,a5,-34
   11740:	ff040713          	addi	a4,s0,-16
   11744:	97ba                	add	a5,a5,a4
   11746:	00c79023          	sh	a2,0(a5)
   1174a:	c2202773          	csrr	a4,vlenb
   1174e:	fc900793          	li	a5,-55
   11752:	02f707b3          	mul	a5,a4,a5
   11756:	fd878793          	addi	a5,a5,-40
   1175a:	ff040713          	addi	a4,s0,-16
   1175e:	973e                	add	a4,a4,a5
   11760:	c22026f3          	csrr	a3,vlenb
   11764:	fdf00793          	li	a5,-33
   11768:	02f687b3          	mul	a5,a3,a5
   1176c:	17c1                	addi	a5,a5,-16
   1176e:	ff040693          	addi	a3,s0,-16
   11772:	97b6                	add	a5,a5,a3
   11774:	02878087          	vl1r.v	v1,(a5)
   11778:	028700a7          	vs1r.v	v1,(a4)
   1177c:	c2202773          	csrr	a4,vlenb
   11780:	fca00793          	li	a5,-54
   11784:	02f707b3          	mul	a5,a4,a5
   11788:	1781                	addi	a5,a5,-32
   1178a:	ff040713          	addi	a4,s0,-16
   1178e:	00f706b3          	add	a3,a4,a5
   11792:	c2202773          	csrr	a4,vlenb
   11796:	fca00793          	li	a5,-54
   1179a:	02f707b3          	mul	a5,a4,a5
   1179e:	fde78793          	addi	a5,a5,-34
   117a2:	ff040713          	addi	a4,s0,-16
   117a6:	973e                	add	a4,a4,a5
   117a8:	c2202673          	csrr	a2,vlenb
   117ac:	fc900793          	li	a5,-55
   117b0:	02f607b3          	mul	a5,a2,a5
   117b4:	fd878793          	addi	a5,a5,-40
   117b8:	ff040613          	addi	a2,s0,-16
   117bc:	97b2                	add	a5,a5,a2
   117be:	22868107          	vl2r.v	v2,(a3)
   117c2:	00075703          	lhu	a4,0(a4)
   117c6:	02878087          	vl1r.v	v1,(a5)
   117ca:	00807057          	vsetvli	zero,zero,e16,m1,tu,mu,d1
   117ce:	9e20b157          	vmv2r.v	v2,v2
   117d2:	f00707d3          	fmv.w.x	fa5,a4
   117d6:	f217d157          	vfwmacc.vf	v2,fa5,v1
   117da:	9e20b157          	vmv2r.v	v2,v2
   117de:	9e20b157          	vmv2r.v	v2,v2
   117e2:	c2202773          	csrr	a4,vlenb
   117e6:	57bd                	li	a5,-17
   117e8:	02f707b3          	mul	a5,a4,a5
   117ec:	17c1                	addi	a5,a5,-16
   117ee:	ff040713          	addi	a4,s0,-16
   117f2:	97ba                	add	a5,a5,a4
   117f4:	22878127          	vs2r.v	v2,(a5)
   117f8:	01107057          	vsetvli	zero,zero,e32,m2,tu,mu,d1
   117fc:	5208a157          	vid.v	v2
   11800:	9e20b157          	vmv2r.v	v2,v2
   11804:	c2202773          	csrr	a4,vlenb
   11808:	57a1                	li	a5,-24
   1180a:	02f707b3          	mul	a5,a4,a5
   1180e:	17c1                	addi	a5,a5,-16
   11810:	ff040713          	addi	a4,s0,-16
   11814:	97ba                	add	a5,a5,a4
   11816:	22878127          	vs2r.v	v2,(a5)
   1181a:	c2202773          	csrr	a4,vlenb
   1181e:	fcc00793          	li	a5,-52
   11822:	02f707b3          	mul	a5,a4,a5
   11826:	1781                	addi	a5,a5,-32
   11828:	ff040713          	addi	a4,s0,-16
   1182c:	973e                	add	a4,a4,a5
   1182e:	c22026f3          	csrr	a3,vlenb
   11832:	57e1                	li	a5,-8
   11834:	02f687b3          	mul	a5,a3,a5
   11838:	17c1                	addi	a5,a5,-16
   1183a:	ff040693          	addi	a3,s0,-16
   1183e:	97b6                	add	a5,a5,a3
   11840:	22878107          	vl2r.v	v2,(a5)
   11844:	22870127          	vs2r.v	v2,(a4)
   11848:	c2202773          	csrr	a4,vlenb
   1184c:	fcc00793          	li	a5,-52
   11850:	02f707b3          	mul	a5,a4,a5
   11854:	1781                	addi	a5,a5,-32
   11856:	ff040713          	addi	a4,s0,-16
   1185a:	97ba                	add	a5,a5,a4
   1185c:	22878107          	vl2r.v	v2,(a5)
   11860:	01107057          	vsetvli	zero,zero,e32,m2,tu,mu,d1
   11864:	422017d7          	vfmv.f.s	fa5,v2
   11868:	c2202773          	csrr	a4,vlenb
   1186c:	fde00793          	li	a5,-34
   11870:	02f707b3          	mul	a5,a4,a5
   11874:	17b1                	addi	a5,a5,-20
   11876:	ff040713          	addi	a4,s0,-16
   1187a:	97ba                	add	a5,a5,a4
   1187c:	e39c                	fsw	fa5,0(a5)
   1187e:	c2202773          	csrr	a4,vlenb
   11882:	fce00793          	li	a5,-50
   11886:	02f707b3          	mul	a5,a4,a5
   1188a:	17a1                	addi	a5,a5,-24
   1188c:	ff040713          	addi	a4,s0,-16
   11890:	973e                	add	a4,a4,a5
   11892:	c22026f3          	csrr	a3,vlenb
   11896:	57e1                	li	a5,-8
   11898:	02f687b3          	mul	a5,a3,a5
   1189c:	17c1                	addi	a5,a5,-16
   1189e:	ff040693          	addi	a3,s0,-16
   118a2:	97b6                	add	a5,a5,a3
   118a4:	22878107          	vl2r.v	v2,(a5)
   118a8:	22870127          	vs2r.v	v2,(a4)
   118ac:	c2202773          	csrr	a4,vlenb
   118b0:	fce00793          	li	a5,-50
   118b4:	02f707b3          	mul	a5,a4,a5
   118b8:	1791                	addi	a5,a5,-28
   118ba:	ff040713          	addi	a4,s0,-16
   118be:	973e                	add	a4,a4,a5
   118c0:	c22026f3          	csrr	a3,vlenb
   118c4:	fde00793          	li	a5,-34
   118c8:	02f687b3          	mul	a5,a3,a5
   118cc:	17b1                	addi	a5,a5,-20
   118ce:	ff040693          	addi	a3,s0,-16
   118d2:	97b6                	add	a5,a5,a3
   118d4:	639c                	flw	fa5,0(a5)
   118d6:	e31c                	fsw	fa5,0(a4)
   118d8:	c2202773          	csrr	a4,vlenb
   118dc:	fce00793          	li	a5,-50
   118e0:	02f707b3          	mul	a5,a4,a5
   118e4:	17a1                	addi	a5,a5,-24
   118e6:	ff040713          	addi	a4,s0,-16
   118ea:	973e                	add	a4,a4,a5
   118ec:	c22026f3          	csrr	a3,vlenb
   118f0:	fce00793          	li	a5,-50
   118f4:	02f687b3          	mul	a5,a3,a5
   118f8:	1791                	addi	a5,a5,-28
   118fa:	ff040693          	addi	a3,s0,-16
   118fe:	97b6                	add	a5,a5,a3
   11900:	22870107          	vl2r.v	v2,(a4)
   11904:	639c                	flw	fa5,0(a5)
   11906:	01107057          	vsetvli	zero,zero,e32,m2,tu,mu,d1
   1190a:	4207d157          	vfmv.s.f	v2,fa5
   1190e:	9e20b157          	vmv2r.v	v2,v2
   11912:	c2202773          	csrr	a4,vlenb
   11916:	57bd                	li	a5,-17
   11918:	02f707b3          	mul	a5,a4,a5
   1191c:	17c1                	addi	a5,a5,-16
   1191e:	ff040713          	addi	a4,s0,-16
   11922:	97ba                	add	a5,a5,a4
   11924:	22878127          	vs2r.v	v2,(a5)
   11928:	c2202773          	csrr	a4,vlenb
   1192c:	fd000793          	li	a5,-48
   11930:	02f707b3          	mul	a5,a4,a5
   11934:	17a1                	addi	a5,a5,-24
   11936:	ff040713          	addi	a4,s0,-16
   1193a:	973e                	add	a4,a4,a5
   1193c:	c22026f3          	csrr	a3,vlenb
   11940:	57e1                	li	a5,-8
   11942:	02f687b3          	mul	a5,a3,a5
   11946:	17c1                	addi	a5,a5,-16
   11948:	ff040693          	addi	a3,s0,-16
   1194c:	97b6                	add	a5,a5,a3
   1194e:	22878107          	vl2r.v	v2,(a5)
   11952:	22870127          	vs2r.v	v2,(a4)
   11956:	c2202773          	csrr	a4,vlenb
   1195a:	fd000793          	li	a5,-48
   1195e:	02f707b3          	mul	a5,a4,a5
   11962:	17a1                	addi	a5,a5,-24
   11964:	ff040713          	addi	a4,s0,-16
   11968:	97ba                	add	a5,a5,a4
   1196a:	22878107          	vl2r.v	v2,(a5)
   1196e:	01107057          	vsetvli	zero,zero,e32,m2,tu,mu,d1
   11972:	4e201157          	vfsqrt.v	v2,v2
   11976:	9e20b157          	vmv2r.v	v2,v2
   1197a:	c2202773          	csrr	a4,vlenb
   1197e:	57bd                	li	a5,-17
   11980:	02f707b3          	mul	a5,a4,a5
   11984:	17c1                	addi	a5,a5,-16
   11986:	ff040713          	addi	a4,s0,-16
   1198a:	97ba                	add	a5,a5,a4
   1198c:	22878127          	vs2r.v	v2,(a5)
   11990:	c2202773          	csrr	a4,vlenb
   11994:	fd200793          	li	a5,-46
   11998:	02f707b3          	mul	a5,a4,a5
   1199c:	17a1                	addi	a5,a5,-24
   1199e:	ff040713          	addi	a4,s0,-16
   119a2:	973e                	add	a4,a4,a5
   119a4:	c22026f3          	csrr	a3,vlenb
   119a8:	57e1                	li	a5,-8
   119aa:	02f687b3          	mul	a5,a3,a5
   119ae:	17c1                	addi	a5,a5,-16
   119b0:	ff040693          	addi	a3,s0,-16
   119b4:	97b6                	add	a5,a5,a3
   119b6:	22878107          	vl2r.v	v2,(a5)
   119ba:	22870127          	vs2r.v	v2,(a4)
   119be:	c2202773          	csrr	a4,vlenb
   119c2:	fd200793          	li	a5,-46
   119c6:	02f707b3          	mul	a5,a4,a5
   119ca:	17a1                	addi	a5,a5,-24
   119cc:	ff040713          	addi	a4,s0,-16
   119d0:	97ba                	add	a5,a5,a4
   119d2:	22878107          	vl2r.v	v2,(a5)
   119d6:	01107057          	vsetvli	zero,zero,e32,m2,tu,mu,d1
   119da:	4e281257          	vfclass.v	v4,v2
   119de:	9e40b157          	vmv2r.v	v2,v4
   119e2:	c2202773          	csrr	a4,vlenb
   119e6:	57a1                	li	a5,-24
   119e8:	02f707b3          	mul	a5,a4,a5
   119ec:	17c1                	addi	a5,a5,-16
   119ee:	ff040713          	addi	a4,s0,-16
   119f2:	97ba                	add	a5,a5,a4
   119f4:	22878127          	vs2r.v	v2,(a5)
   119f8:	c2202773          	csrr	a4,vlenb
   119fc:	fd600793          	li	a5,-42
   11a00:	02f707b3          	mul	a5,a4,a5
   11a04:	17a1                	addi	a5,a5,-24
   11a06:	ff040713          	addi	a4,s0,-16
   11a0a:	973e                	add	a4,a4,a5
   11a0c:	c22026f3          	csrr	a3,vlenb
   11a10:	57f9                	li	a5,-2
   11a12:	02f687b3          	mul	a5,a3,a5
   11a16:	17c1                	addi	a5,a5,-16
   11a18:	ff040693          	addi	a3,s0,-16
   11a1c:	97b6                	add	a5,a5,a3
   11a1e:	22878107          	vl2r.v	v2,(a5)
   11a22:	22870127          	vs2r.v	v2,(a4)
   11a26:	c2202773          	csrr	a4,vlenb
   11a2a:	fd400793          	li	a5,-44
   11a2e:	02f707b3          	mul	a5,a4,a5
   11a32:	17a1                	addi	a5,a5,-24
   11a34:	ff040713          	addi	a4,s0,-16
   11a38:	973e                	add	a4,a4,a5
   11a3a:	c22026f3          	csrr	a3,vlenb
   11a3e:	57f1                	li	a5,-4
   11a40:	02f687b3          	mul	a5,a3,a5
   11a44:	17c1                	addi	a5,a5,-16
   11a46:	ff040693          	addi	a3,s0,-16
   11a4a:	97b6                	add	a5,a5,a3
   11a4c:	22878107          	vl2r.v	v2,(a5)
   11a50:	22870127          	vs2r.v	v2,(a4)
   11a54:	c2202773          	csrr	a4,vlenb
   11a58:	fd600793          	li	a5,-42
   11a5c:	02f707b3          	mul	a5,a4,a5
   11a60:	17a1                	addi	a5,a5,-24
   11a62:	ff040713          	addi	a4,s0,-16
   11a66:	973e                	add	a4,a4,a5
   11a68:	c22026f3          	csrr	a3,vlenb
   11a6c:	fd400793          	li	a5,-44
   11a70:	02f687b3          	mul	a5,a3,a5
   11a74:	17a1                	addi	a5,a5,-24
   11a76:	ff040693          	addi	a3,s0,-16
   11a7a:	97b6                	add	a5,a5,a3
   11a7c:	22870207          	vl2r.v	v4,(a4)
   11a80:	22878107          	vl2r.v	v2,(a5)
   11a84:	01107057          	vsetvli	zero,zero,e32,m2,tu,mu,d1
   11a88:	0a410157          	vsub.vv	v2,v4,v2
   11a8c:	9e20b157          	vmv2r.v	v2,v2
   11a90:	c2202773          	csrr	a4,vlenb
   11a94:	57c9                	li	a5,-14
   11a96:	02f707b3          	mul	a5,a4,a5
   11a9a:	17c1                	addi	a5,a5,-16
   11a9c:	ff040713          	addi	a4,s0,-16
   11aa0:	97ba                	add	a5,a5,a4
   11aa2:	22878127          	vs2r.v	v2,(a5)
   11aa6:	c2202773          	csrr	a4,vlenb
   11aaa:	fda00793          	li	a5,-38
   11aae:	02f707b3          	mul	a5,a4,a5
   11ab2:	17a1                	addi	a5,a5,-24
   11ab4:	ff040713          	addi	a4,s0,-16
   11ab8:	973e                	add	a4,a4,a5
   11aba:	c22026f3          	csrr	a3,vlenb
   11abe:	57f9                	li	a5,-2
   11ac0:	02f687b3          	mul	a5,a3,a5
   11ac4:	17c1                	addi	a5,a5,-16
   11ac6:	ff040693          	addi	a3,s0,-16
   11aca:	97b6                	add	a5,a5,a3
   11acc:	22878107          	vl2r.v	v2,(a5)
   11ad0:	22870127          	vs2r.v	v2,(a4)
   11ad4:	c2202773          	csrr	a4,vlenb
   11ad8:	fd800793          	li	a5,-40
   11adc:	02f707b3          	mul	a5,a4,a5
   11ae0:	17a1                	addi	a5,a5,-24
   11ae2:	ff040713          	addi	a4,s0,-16
   11ae6:	973e                	add	a4,a4,a5
   11ae8:	c22026f3          	csrr	a3,vlenb
   11aec:	57f1                	li	a5,-4
   11aee:	02f687b3          	mul	a5,a3,a5
   11af2:	17c1                	addi	a5,a5,-16
   11af4:	ff040693          	addi	a3,s0,-16
   11af8:	97b6                	add	a5,a5,a3
   11afa:	22878107          	vl2r.v	v2,(a5)
   11afe:	22870127          	vs2r.v	v2,(a4)
   11b02:	c2202773          	csrr	a4,vlenb
   11b06:	fda00793          	li	a5,-38
   11b0a:	02f707b3          	mul	a5,a4,a5
   11b0e:	17a1                	addi	a5,a5,-24
   11b10:	ff040713          	addi	a4,s0,-16
   11b14:	973e                	add	a4,a4,a5
   11b16:	c22026f3          	csrr	a3,vlenb
   11b1a:	fd800793          	li	a5,-40
   11b1e:	02f687b3          	mul	a5,a3,a5
   11b22:	17a1                	addi	a5,a5,-24
   11b24:	ff040693          	addi	a3,s0,-16
   11b28:	97b6                	add	a5,a5,a3
   11b2a:	22870207          	vl2r.v	v4,(a4)
   11b2e:	22878107          	vl2r.v	v2,(a5)
   11b32:	01107057          	vsetvli	zero,zero,e32,m2,tu,mu,d1
   11b36:	26410157          	vand.vv	v2,v4,v2
   11b3a:	9e20b157          	vmv2r.v	v2,v2
   11b3e:	c2202773          	csrr	a4,vlenb
   11b42:	57c9                	li	a5,-14
   11b44:	02f707b3          	mul	a5,a4,a5
   11b48:	17c1                	addi	a5,a5,-16
   11b4a:	ff040713          	addi	a4,s0,-16
   11b4e:	97ba                	add	a5,a5,a4
   11b50:	22878127          	vs2r.v	v2,(a5)
   11b54:	c2202773          	csrr	a4,vlenb
   11b58:	fde00793          	li	a5,-34
   11b5c:	02f707b3          	mul	a5,a4,a5
   11b60:	17a1                	addi	a5,a5,-24
   11b62:	ff040713          	addi	a4,s0,-16
   11b66:	973e                	add	a4,a4,a5
   11b68:	c22026f3          	csrr	a3,vlenb
   11b6c:	f8800793          	li	a5,-120
   11b70:	02f687b3          	mul	a5,a3,a5
   11b74:	f4078793          	addi	a5,a5,-192
   11b78:	ff040693          	addi	a3,s0,-16
   11b7c:	97b6                	add	a5,a5,a3
   11b7e:	c31c                	sw	a5,0(a4)
   11b80:	c2202773          	csrr	a4,vlenb
   11b84:	fdc00793          	li	a5,-36
   11b88:	02f707b3          	mul	a5,a4,a5
   11b8c:	17a1                	addi	a5,a5,-24
   11b8e:	ff040713          	addi	a4,s0,-16
   11b92:	973e                	add	a4,a4,a5
   11b94:	c22026f3          	csrr	a3,vlenb
   11b98:	57c9                	li	a5,-14
   11b9a:	02f687b3          	mul	a5,a3,a5
   11b9e:	17c1                	addi	a5,a5,-16
   11ba0:	ff040693          	addi	a3,s0,-16
   11ba4:	97b6                	add	a5,a5,a3
   11ba6:	22878107          	vl2r.v	v2,(a5)
   11baa:	22870127          	vs2r.v	v2,(a4)
   11bae:	c2202773          	csrr	a4,vlenb
   11bb2:	fdc00793          	li	a5,-36
   11bb6:	02f707b3          	mul	a5,a4,a5
   11bba:	17a1                	addi	a5,a5,-24
   11bbc:	ff040713          	addi	a4,s0,-16
   11bc0:	973e                	add	a4,a4,a5
   11bc2:	c22026f3          	csrr	a3,vlenb
   11bc6:	fde00793          	li	a5,-34
   11bca:	02f687b3          	mul	a5,a3,a5
   11bce:	17a1                	addi	a5,a5,-24
   11bd0:	ff040693          	addi	a3,s0,-16
   11bd4:	97b6                	add	a5,a5,a3
   11bd6:	22870107          	vl2r.v	v2,(a4)
   11bda:	439c                	lw	a5,0(a5)
   11bdc:	01107057          	vsetvli	zero,zero,e32,m2,tu,mu,d1
   11be0:	0207e127          	vse32.v	v2,(a5)
   11be4:	0001                	nop
   11be6:	4781                	li	a5,0
   11be8:	853e                	mv	a0,a5
   11bea:	c2202373          	csrr	t1,vlenb
   11bee:	07800393          	li	t2,120
   11bf2:	02730333          	mul	t1,t1,t2
   11bf6:	911a                	add	sp,sp,t1
   11bf8:	6135                	addi	sp,sp,352
   11bfa:	40b2                	lw	ra,12(sp)
   11bfc:	4422                	lw	s0,8(sp)
   11bfe:	0141                	addi	sp,sp,16
   11c00:	8082                	ret
	...

00011c04 <__truncsfhf2>:
   11c04:	01755693          	srli	a3,a0,0x17
   11c08:	0ff6f693          	andi	a3,a3,255
   11c0c:	00168713          	addi	a4,a3,1
   11c10:	00951793          	slli	a5,a0,0x9
   11c14:	0fe77713          	andi	a4,a4,254
   11c18:	0097d613          	srli	a2,a5,0x9
   11c1c:	01f55513          	srli	a0,a0,0x1f
   11c20:	0067d793          	srli	a5,a5,0x6
   11c24:	06070263          	beqz	a4,11c88 <__truncsfhf2+0x84>
   11c28:	f9068713          	addi	a4,a3,-112
   11c2c:	01e00593          	li	a1,30
   11c30:	06e5ce63          	blt	a1,a4,11cac <__truncsfhf2+0xa8>
   11c34:	04e04063          	bgtz	a4,11c74 <__truncsfhf2+0x70>
   11c38:	ff600613          	li	a2,-10
   11c3c:	0cc74863          	blt	a4,a2,11d0c <__truncsfhf2+0x108>
   11c40:	04000637          	lui	a2,0x4000
   11c44:	00c7e7b3          	or	a5,a5,a2
   11c48:	00e00613          	li	a2,14
   11c4c:	40e60733          	sub	a4,a2,a4
   11c50:	fa268693          	addi	a3,a3,-94
   11c54:	00e7d733          	srl	a4,a5,a4
   11c58:	00d797b3          	sll	a5,a5,a3
   11c5c:	00f037b3          	snez	a5,a5
   11c60:	00f767b3          	or	a5,a4,a5
   11c64:	00000713          	li	a4,0
   11c68:	0077f693          	andi	a3,a5,7
   11c6c:	04068463          	beqz	a3,11cb4 <__truncsfhf2+0xb0>
   11c70:	0a40006f          	j	11d14 <__truncsfhf2+0x110>
   11c74:	01661693          	slli	a3,a2,0x16
   11c78:	00d7d793          	srli	a5,a5,0xd
   11c7c:	00d036b3          	snez	a3,a3
   11c80:	00d7e7b3          	or	a5,a5,a3
   11c84:	fe5ff06f          	j	11c68 <__truncsfhf2+0x64>
   11c88:	00069663          	bnez	a3,11c94 <__truncsfhf2+0x90>
   11c8c:	00f037b3          	snez	a5,a5
   11c90:	fd5ff06f          	j	11c64 <__truncsfhf2+0x60>
   11c94:	01f00713          	li	a4,31
   11c98:	00078e63          	beqz	a5,11cb4 <__truncsfhf2+0xb0>
   11c9c:	00d7d793          	srli	a5,a5,0xd
   11ca0:	ff87f793          	andi	a5,a5,-8
   11ca4:	000016b7          	lui	a3,0x1
   11ca8:	fd9ff06f          	j	11c80 <__truncsfhf2+0x7c>
   11cac:	00000793          	li	a5,0
   11cb0:	01f00713          	li	a4,31
   11cb4:	000026b7          	lui	a3,0x2
   11cb8:	00d7f6b3          	and	a3,a5,a3
   11cbc:	00068e63          	beqz	a3,11cd8 <__truncsfhf2+0xd4>
   11cc0:	00170713          	addi	a4,a4,1
   11cc4:	01f00693          	li	a3,31
   11cc8:	06d70063          	beq	a4,a3,11d28 <__truncsfhf2+0x124>
   11ccc:	ffffe6b7          	lui	a3,0xffffe
   11cd0:	fff68693          	addi	a3,a3,-1 # ffffdfff <__global_pointer$+0xfffea5ff>
   11cd4:	00d7f7b3          	and	a5,a5,a3
   11cd8:	01f00693          	li	a3,31
   11cdc:	0037d793          	srli	a5,a5,0x3
   11ce0:	00d71863          	bne	a4,a3,11cf0 <__truncsfhf2+0xec>
   11ce4:	00078663          	beqz	a5,11cf0 <__truncsfhf2+0xec>
   11ce8:	20000793          	li	a5,512
   11cec:	00000513          	li	a0,0
   11cf0:	01f77713          	andi	a4,a4,31
   11cf4:	00a71713          	slli	a4,a4,0xa
   11cf8:	3ff7f793          	andi	a5,a5,1023
   11cfc:	00f767b3          	or	a5,a4,a5
   11d00:	00f51513          	slli	a0,a0,0xf
   11d04:	00f56533          	or	a0,a0,a5
   11d08:	00008067          	ret
   11d0c:	00100793          	li	a5,1
   11d10:	00000713          	li	a4,0
   11d14:	00f7f693          	andi	a3,a5,15
   11d18:	00400613          	li	a2,4
   11d1c:	f8c68ce3          	beq	a3,a2,11cb4 <__truncsfhf2+0xb0>
   11d20:	00478793          	addi	a5,a5,4
   11d24:	f91ff06f          	j	11cb4 <__truncsfhf2+0xb0>
   11d28:	00000793          	li	a5,0
   11d2c:	fadff06f          	j	11cd8 <__truncsfhf2+0xd4>

00011d30 <exit>:
   11d30:	ff010113          	addi	sp,sp,-16
   11d34:	00000593          	li	a1,0
   11d38:	00812423          	sw	s0,8(sp)
   11d3c:	00112623          	sw	ra,12(sp)
   11d40:	00050413          	mv	s0,a0
   11d44:	194000ef          	jal	ra,11ed8 <__call_exitprocs>
   11d48:	c281a503          	lw	a0,-984(gp) # 13628 <_global_impure_ptr>
   11d4c:	03c52783          	lw	a5,60(a0)
   11d50:	00078463          	beqz	a5,11d58 <exit+0x28>
   11d54:	000780e7          	jalr	a5
   11d58:	00040513          	mv	a0,s0
   11d5c:	3a4000ef          	jal	ra,12100 <_exit>

00011d60 <__libc_init_array>:
   11d60:	ff010113          	addi	sp,sp,-16
   11d64:	00812423          	sw	s0,8(sp)
   11d68:	01212023          	sw	s2,0(sp)
   11d6c:	00013437          	lui	s0,0x13
   11d70:	00013937          	lui	s2,0x13
   11d74:	1f440793          	addi	a5,s0,500 # 131f4 <__init_array_start>
   11d78:	1f490913          	addi	s2,s2,500 # 131f4 <__init_array_start>
   11d7c:	40f90933          	sub	s2,s2,a5
   11d80:	00112623          	sw	ra,12(sp)
   11d84:	00912223          	sw	s1,4(sp)
   11d88:	40295913          	srai	s2,s2,0x2
   11d8c:	02090063          	beqz	s2,11dac <__libc_init_array+0x4c>
   11d90:	1f440413          	addi	s0,s0,500
   11d94:	00000493          	li	s1,0
   11d98:	00042783          	lw	a5,0(s0)
   11d9c:	00148493          	addi	s1,s1,1
   11da0:	00440413          	addi	s0,s0,4
   11da4:	000780e7          	jalr	a5
   11da8:	fe9918e3          	bne	s2,s1,11d98 <__libc_init_array+0x38>
   11dac:	00013437          	lui	s0,0x13
   11db0:	00013937          	lui	s2,0x13
   11db4:	1f440793          	addi	a5,s0,500 # 131f4 <__init_array_start>
   11db8:	1fc90913          	addi	s2,s2,508 # 131fc <__do_global_dtors_aux_fini_array_entry>
   11dbc:	40f90933          	sub	s2,s2,a5
   11dc0:	40295913          	srai	s2,s2,0x2
   11dc4:	02090063          	beqz	s2,11de4 <__libc_init_array+0x84>
   11dc8:	1f440413          	addi	s0,s0,500
   11dcc:	00000493          	li	s1,0
   11dd0:	00042783          	lw	a5,0(s0)
   11dd4:	00148493          	addi	s1,s1,1
   11dd8:	00440413          	addi	s0,s0,4
   11ddc:	000780e7          	jalr	a5
   11de0:	fe9918e3          	bne	s2,s1,11dd0 <__libc_init_array+0x70>
   11de4:	00c12083          	lw	ra,12(sp)
   11de8:	00812403          	lw	s0,8(sp)
   11dec:	00412483          	lw	s1,4(sp)
   11df0:	00012903          	lw	s2,0(sp)
   11df4:	01010113          	addi	sp,sp,16
   11df8:	00008067          	ret

00011dfc <memset>:
   11dfc:	00f00313          	li	t1,15
   11e00:	00050713          	mv	a4,a0
   11e04:	02c37e63          	bgeu	t1,a2,11e40 <memset+0x44>
   11e08:	00f77793          	andi	a5,a4,15
   11e0c:	0a079063          	bnez	a5,11eac <memset+0xb0>
   11e10:	08059263          	bnez	a1,11e94 <memset+0x98>
   11e14:	ff067693          	andi	a3,a2,-16
   11e18:	00f67613          	andi	a2,a2,15
   11e1c:	00e686b3          	add	a3,a3,a4
   11e20:	00b72023          	sw	a1,0(a4)
   11e24:	00b72223          	sw	a1,4(a4)
   11e28:	00b72423          	sw	a1,8(a4)
   11e2c:	00b72623          	sw	a1,12(a4)
   11e30:	01070713          	addi	a4,a4,16
   11e34:	fed766e3          	bltu	a4,a3,11e20 <memset+0x24>
   11e38:	00061463          	bnez	a2,11e40 <memset+0x44>
   11e3c:	00008067          	ret
   11e40:	40c306b3          	sub	a3,t1,a2
   11e44:	00269693          	slli	a3,a3,0x2
   11e48:	00000297          	auipc	t0,0x0
   11e4c:	005686b3          	add	a3,a3,t0
   11e50:	00c68067          	jr	12(a3)
   11e54:	00b70723          	sb	a1,14(a4)
   11e58:	00b706a3          	sb	a1,13(a4)
   11e5c:	00b70623          	sb	a1,12(a4)
   11e60:	00b705a3          	sb	a1,11(a4)
   11e64:	00b70523          	sb	a1,10(a4)
   11e68:	00b704a3          	sb	a1,9(a4)
   11e6c:	00b70423          	sb	a1,8(a4)
   11e70:	00b703a3          	sb	a1,7(a4)
   11e74:	00b70323          	sb	a1,6(a4)
   11e78:	00b702a3          	sb	a1,5(a4)
   11e7c:	00b70223          	sb	a1,4(a4)
   11e80:	00b701a3          	sb	a1,3(a4)
   11e84:	00b70123          	sb	a1,2(a4)
   11e88:	00b700a3          	sb	a1,1(a4)
   11e8c:	00b70023          	sb	a1,0(a4)
   11e90:	00008067          	ret
   11e94:	0ff5f593          	andi	a1,a1,255
   11e98:	00859693          	slli	a3,a1,0x8
   11e9c:	00d5e5b3          	or	a1,a1,a3
   11ea0:	01059693          	slli	a3,a1,0x10
   11ea4:	00d5e5b3          	or	a1,a1,a3
   11ea8:	f6dff06f          	j	11e14 <memset+0x18>
   11eac:	00279693          	slli	a3,a5,0x2
   11eb0:	00000297          	auipc	t0,0x0
   11eb4:	005686b3          	add	a3,a3,t0
   11eb8:	00008293          	mv	t0,ra
   11ebc:	fa0680e7          	jalr	-96(a3)
   11ec0:	00028093          	mv	ra,t0
   11ec4:	ff078793          	addi	a5,a5,-16
   11ec8:	40f70733          	sub	a4,a4,a5
   11ecc:	00f60633          	add	a2,a2,a5
   11ed0:	f6c378e3          	bgeu	t1,a2,11e40 <memset+0x44>
   11ed4:	f3dff06f          	j	11e10 <memset+0x14>

00011ed8 <__call_exitprocs>:
   11ed8:	fd010113          	addi	sp,sp,-48
   11edc:	01412c23          	sw	s4,24(sp)
   11ee0:	c281aa03          	lw	s4,-984(gp) # 13628 <_global_impure_ptr>
   11ee4:	03212023          	sw	s2,32(sp)
   11ee8:	02112623          	sw	ra,44(sp)
   11eec:	148a2903          	lw	s2,328(s4)
   11ef0:	02812423          	sw	s0,40(sp)
   11ef4:	02912223          	sw	s1,36(sp)
   11ef8:	01312e23          	sw	s3,28(sp)
   11efc:	01512a23          	sw	s5,20(sp)
   11f00:	01612823          	sw	s6,16(sp)
   11f04:	01712623          	sw	s7,12(sp)
   11f08:	01812423          	sw	s8,8(sp)
   11f0c:	04090063          	beqz	s2,11f4c <__call_exitprocs+0x74>
   11f10:	00050b13          	mv	s6,a0
   11f14:	00058b93          	mv	s7,a1
   11f18:	00100a93          	li	s5,1
   11f1c:	fff00993          	li	s3,-1
   11f20:	00492483          	lw	s1,4(s2)
   11f24:	fff48413          	addi	s0,s1,-1
   11f28:	02044263          	bltz	s0,11f4c <__call_exitprocs+0x74>
   11f2c:	00249493          	slli	s1,s1,0x2
   11f30:	009904b3          	add	s1,s2,s1
   11f34:	040b8463          	beqz	s7,11f7c <__call_exitprocs+0xa4>
   11f38:	1044a783          	lw	a5,260(s1)
   11f3c:	05778063          	beq	a5,s7,11f7c <__call_exitprocs+0xa4>
   11f40:	fff40413          	addi	s0,s0,-1
   11f44:	ffc48493          	addi	s1,s1,-4
   11f48:	ff3416e3          	bne	s0,s3,11f34 <__call_exitprocs+0x5c>
   11f4c:	02c12083          	lw	ra,44(sp)
   11f50:	02812403          	lw	s0,40(sp)
   11f54:	02412483          	lw	s1,36(sp)
   11f58:	02012903          	lw	s2,32(sp)
   11f5c:	01c12983          	lw	s3,28(sp)
   11f60:	01812a03          	lw	s4,24(sp)
   11f64:	01412a83          	lw	s5,20(sp)
   11f68:	01012b03          	lw	s6,16(sp)
   11f6c:	00c12b83          	lw	s7,12(sp)
   11f70:	00812c03          	lw	s8,8(sp)
   11f74:	03010113          	addi	sp,sp,48
   11f78:	00008067          	ret
   11f7c:	00492783          	lw	a5,4(s2)
   11f80:	0044a683          	lw	a3,4(s1)
   11f84:	fff78793          	addi	a5,a5,-1
   11f88:	04878e63          	beq	a5,s0,11fe4 <__call_exitprocs+0x10c>
   11f8c:	0004a223          	sw	zero,4(s1)
   11f90:	fa0688e3          	beqz	a3,11f40 <__call_exitprocs+0x68>
   11f94:	18892783          	lw	a5,392(s2)
   11f98:	008a9733          	sll	a4,s5,s0
   11f9c:	00492c03          	lw	s8,4(s2)
   11fa0:	00f777b3          	and	a5,a4,a5
   11fa4:	02079263          	bnez	a5,11fc8 <__call_exitprocs+0xf0>
   11fa8:	000680e7          	jalr	a3
   11fac:	00492703          	lw	a4,4(s2)
   11fb0:	148a2783          	lw	a5,328(s4)
   11fb4:	01871463          	bne	a4,s8,11fbc <__call_exitprocs+0xe4>
   11fb8:	f92784e3          	beq	a5,s2,11f40 <__call_exitprocs+0x68>
   11fbc:	f80788e3          	beqz	a5,11f4c <__call_exitprocs+0x74>
   11fc0:	00078913          	mv	s2,a5
   11fc4:	f5dff06f          	j	11f20 <__call_exitprocs+0x48>
   11fc8:	18c92783          	lw	a5,396(s2)
   11fcc:	0844a583          	lw	a1,132(s1)
   11fd0:	00f77733          	and	a4,a4,a5
   11fd4:	00071c63          	bnez	a4,11fec <__call_exitprocs+0x114>
   11fd8:	000b0513          	mv	a0,s6
   11fdc:	000680e7          	jalr	a3
   11fe0:	fcdff06f          	j	11fac <__call_exitprocs+0xd4>
   11fe4:	00892223          	sw	s0,4(s2)
   11fe8:	fa9ff06f          	j	11f90 <__call_exitprocs+0xb8>
   11fec:	00058513          	mv	a0,a1
   11ff0:	000680e7          	jalr	a3
   11ff4:	fb9ff06f          	j	11fac <__call_exitprocs+0xd4>

00011ff8 <__libc_fini_array>:
   11ff8:	ff010113          	addi	sp,sp,-16
   11ffc:	00812423          	sw	s0,8(sp)
   12000:	000137b7          	lui	a5,0x13
   12004:	00013437          	lui	s0,0x13
   12008:	1fc40413          	addi	s0,s0,508 # 131fc <__do_global_dtors_aux_fini_array_entry>
   1200c:	20078793          	addi	a5,a5,512 # 13200 <impure_data>
   12010:	408787b3          	sub	a5,a5,s0
   12014:	00912223          	sw	s1,4(sp)
   12018:	00112623          	sw	ra,12(sp)
   1201c:	4027d493          	srai	s1,a5,0x2
   12020:	02048063          	beqz	s1,12040 <__libc_fini_array+0x48>
   12024:	ffc78793          	addi	a5,a5,-4
   12028:	00878433          	add	s0,a5,s0
   1202c:	00042783          	lw	a5,0(s0)
   12030:	fff48493          	addi	s1,s1,-1
   12034:	ffc40413          	addi	s0,s0,-4
   12038:	000780e7          	jalr	a5
   1203c:	fe0498e3          	bnez	s1,1202c <__libc_fini_array+0x34>
   12040:	00c12083          	lw	ra,12(sp)
   12044:	00812403          	lw	s0,8(sp)
   12048:	00412483          	lw	s1,4(sp)
   1204c:	01010113          	addi	sp,sp,16
   12050:	00008067          	ret

00012054 <atexit>:
   12054:	00050593          	mv	a1,a0
   12058:	00000693          	li	a3,0
   1205c:	00000613          	li	a2,0
   12060:	00000513          	li	a0,0
   12064:	0040006f          	j	12068 <__register_exitproc>

00012068 <__register_exitproc>:
   12068:	c281a703          	lw	a4,-984(gp) # 13628 <_global_impure_ptr>
   1206c:	14872783          	lw	a5,328(a4)
   12070:	04078c63          	beqz	a5,120c8 <__register_exitproc+0x60>
   12074:	0047a703          	lw	a4,4(a5)
   12078:	01f00813          	li	a6,31
   1207c:	06e84e63          	blt	a6,a4,120f8 <__register_exitproc+0x90>
   12080:	00271813          	slli	a6,a4,0x2
   12084:	02050663          	beqz	a0,120b0 <__register_exitproc+0x48>
   12088:	01078333          	add	t1,a5,a6
   1208c:	08c32423          	sw	a2,136(t1) # 101c0 <main+0x7c>
   12090:	1887a883          	lw	a7,392(a5)
   12094:	00100613          	li	a2,1
   12098:	00e61633          	sll	a2,a2,a4
   1209c:	00c8e8b3          	or	a7,a7,a2
   120a0:	1917a423          	sw	a7,392(a5)
   120a4:	10d32423          	sw	a3,264(t1)
   120a8:	00200693          	li	a3,2
   120ac:	02d50463          	beq	a0,a3,120d4 <__register_exitproc+0x6c>
   120b0:	00170713          	addi	a4,a4,1
   120b4:	00e7a223          	sw	a4,4(a5)
   120b8:	010787b3          	add	a5,a5,a6
   120bc:	00b7a423          	sw	a1,8(a5)
   120c0:	00000513          	li	a0,0
   120c4:	00008067          	ret
   120c8:	14c70793          	addi	a5,a4,332
   120cc:	14f72423          	sw	a5,328(a4)
   120d0:	fa5ff06f          	j	12074 <__register_exitproc+0xc>
   120d4:	18c7a683          	lw	a3,396(a5)
   120d8:	00170713          	addi	a4,a4,1
   120dc:	00e7a223          	sw	a4,4(a5)
   120e0:	00c6e633          	or	a2,a3,a2
   120e4:	18c7a623          	sw	a2,396(a5)
   120e8:	010787b3          	add	a5,a5,a6
   120ec:	00b7a423          	sw	a1,8(a5)
   120f0:	00000513          	li	a0,0
   120f4:	00008067          	ret
   120f8:	fff00513          	li	a0,-1
   120fc:	00008067          	ret

00012100 <_exit>:
   12100:	00000593          	li	a1,0
   12104:	00000613          	li	a2,0
   12108:	00000693          	li	a3,0
   1210c:	00000713          	li	a4,0
   12110:	00000793          	li	a5,0
   12114:	05d00893          	li	a7,93
   12118:	00000073          	ecall
   1211c:	00054463          	bltz	a0,12124 <_exit+0x24>
   12120:	0000006f          	j	12120 <_exit+0x20>
   12124:	ff010113          	addi	sp,sp,-16
   12128:	00812423          	sw	s0,8(sp)
   1212c:	00050413          	mv	s0,a0
   12130:	00112623          	sw	ra,12(sp)
   12134:	40800433          	neg	s0,s0
   12138:	00c000ef          	jal	ra,12144 <__errno>
   1213c:	00852023          	sw	s0,0(a0)
   12140:	0000006f          	j	12140 <_exit+0x40>

00012144 <__errno>:
   12144:	c301a503          	lw	a0,-976(gp) # 13630 <_impure_ptr>
   12148:	00008067          	ret

Disassembly of section .rodata:

0001214c <.rodata>:
   1214c:	0001                	nop
   1214e:	0000                	unimp
   12150:	0002                	c.slli64	zero
   12152:	0000                	unimp
   12154:	00000003          	lb	zero,0(zero) # 0 <register_fini-0x10074>
   12158:	0004                	0x4
   1215a:	0000                	unimp
   1215c:	0005                	c.nop	1
   1215e:	0000                	unimp
   12160:	0006                	c.slli	zero,0x1
   12162:	0000                	unimp
   12164:	00000007          	vle8.v	v0,(zero),v0.t
   12168:	0008                	0x8
   1216a:	0000                	unimp
   1216c:	0009                	c.nop	2
	...
   12176:	0000                	unimp
   12178:	0009                	c.nop	2
   1217a:	0000                	unimp
   1217c:	0008                	0x8
   1217e:	0000                	unimp
   12180:	00000007          	vle8.v	v0,(zero),v0.t
   12184:	0006                	c.slli	zero,0x1
   12186:	0000                	unimp
   12188:	0005                	c.nop	1
   1218a:	0000                	unimp
   1218c:	0004                	0x4
   1218e:	0000                	unimp
   12190:	00000003          	lb	zero,0(zero) # 0 <register_fini-0x10074>
   12194:	0002                	c.slli64	zero
   12196:	0000                	unimp
   12198:	0001                	nop
   1219a:	0000                	unimp
   1219c:	0000                	unimp
   1219e:	3f80                	fld	fs0,56(a5)
   121a0:	0000                	unimp
   121a2:	4000                	lw	s0,0(s0)
   121a4:	0000                	unimp
   121a6:	4040                	lw	s0,4(s0)
   121a8:	0000                	unimp
   121aa:	4080                	lw	s0,0(s1)
   121ac:	0000                	unimp
   121ae:	40a0                	lw	s0,64(s1)
   121b0:	0000                	unimp
   121b2:	40c0                	lw	s0,4(s1)
   121b4:	0000                	unimp
   121b6:	40e0                	lw	s0,68(s1)
   121b8:	0000                	unimp
   121ba:	4100                	lw	s0,0(a0)
   121bc:	0000                	unimp
   121be:	4110                	lw	a2,0(a0)
	...
   121c8:	0000                	unimp
   121ca:	4110                	lw	a2,0(a0)
   121cc:	0000                	unimp
   121ce:	4100                	lw	s0,0(a0)
   121d0:	0000                	unimp
   121d2:	40e0                	lw	s0,68(s1)
   121d4:	0000                	unimp
   121d6:	40c0                	lw	s0,4(s1)
   121d8:	0000                	unimp
   121da:	40a0                	lw	s0,64(s1)
   121dc:	0000                	unimp
   121de:	4080                	lw	s0,0(s1)
   121e0:	0000                	unimp
   121e2:	4040                	lw	s0,4(s0)
   121e4:	0000                	unimp
   121e6:	4000                	lw	s0,0(s0)
   121e8:	0000                	unimp
   121ea:	3f80                	fld	fs0,56(a5)
   121ec:	0000                	unimp
   121ee:	4180                	lw	s0,0(a1)

Disassembly of section .eh_frame:

000131f0 <__FRAME_END__>:
   131f0:	0000                	unimp
	...

Disassembly of section .init_array:

000131f4 <__init_array_start>:
   131f4:	0074                	addi	a3,sp,12
   131f6:	0001                	nop

000131f8 <__frame_dummy_init_array_entry>:
   131f8:	0124                	addi	s1,sp,136
   131fa:	0001                	nop

Disassembly of section .fini_array:

000131fc <__do_global_dtors_aux_fini_array_entry>:
   131fc:	00d8                	addi	a4,sp,68
   131fe:	0001                	nop

Disassembly of section .data:

00013200 <impure_data>:
   13200:	0000                	unimp
   13202:	0000                	unimp
   13204:	34ec                	fld	fa1,232(s1)
   13206:	0001                	nop
   13208:	3554                	fld	fa3,168(a0)
   1320a:	0001                	nop
   1320c:	35bc                	fld	fa5,104(a1)
   1320e:	0001                	nop
	...
   132a8:	0001                	nop
   132aa:	0000                	unimp
   132ac:	0000                	unimp
   132ae:	0000                	unimp
   132b0:	330e                	fld	ft6,224(sp)
   132b2:	abcd                	j	138a4 <__BSS_END__+0x254>
   132b4:	1234                	addi	a3,sp,296
   132b6:	e66d                	bnez	a2,133a0 <impure_data+0x1a0>
   132b8:	deec                	sw	a1,124(a3)
   132ba:	0005                	c.nop	1
   132bc:	0000000b          	0xb
	...

Disassembly of section .sdata:

00013628 <_global_impure_ptr>:
   13628:	3200                	fld	fs0,32(a2)
   1362a:	0001                	nop

0001362c <__dso_handle>:
   1362c:	0000                	unimp
	...

00013630 <_impure_ptr>:
   13630:	3200                	fld	fs0,32(a2)
   13632:	0001                	nop

Disassembly of section .bss:

00013634 <completed.1>:
   13634:	0000                	unimp
	...

00013638 <object.0>:
	...

Disassembly of section .comment:

00000000 <.comment>:
   0:	3a434347          	fmsub.d	ft6,ft6,ft4,ft7,rmm
   4:	2820                	fld	fs0,80(s0)
   6:	29554e47          	fmsub.s	ft8,fa0,fs5,ft5,rmm
   a:	3120                	fld	fs0,96(a0)
   c:	2e30                	fld	fa2,88(a2)
   e:	2e31                	jal	32a <register_fini-0xfd4a>
  10:	0030                	addi	a2,sp,8

Disassembly of section .riscv.attributes:

00000000 <.riscv.attributes>:
   0:	4c41                	li	s8,16
   2:	0000                	unimp
   4:	7200                	flw	fs0,32(a2)
   6:	7369                	lui	t1,0xffffa
   8:	01007663          	bgeu	zero,a6,14 <register_fini-0x10060>
   c:	0042                	c.slli	zero,0x10
   e:	0000                	unimp
  10:	1004                	addi	s1,sp,32
  12:	7205                	lui	tp,0xfffe1
  14:	3376                	fld	ft6,376(sp)
  16:	6932                	flw	fs2,12(sp)
  18:	7032                	flw	ft0,44(sp)
  1a:	5f30                	lw	a2,120(a4)
  1c:	326d                	jal	fffff9c6 <__global_pointer$+0xfffebfc6>
  1e:	3070                	fld	fa2,224(s0)
  20:	615f 7032 5f30      	0x5f307032615f
  26:	3266                	fld	ft4,120(sp)
  28:	3070                	fld	fa2,224(s0)
  2a:	635f 7032 5f30      	0x5f307032635f
  30:	3176                	fld	ft2,376(sp)
  32:	3070                	fld	fa2,224(s0)
  34:	7a5f 6176 6f6d      	0x6f6d61767a5f
  3a:	7031                	c.lui	zero,0xfffec
  3c:	5f30                	lw	a2,120(a4)
  3e:	767a                	flw	fa2,188(sp)
  40:	736c                	flw	fa1,100(a4)
  42:	31676573          	csrrsi	a0,0x316,14
  46:	3070                	fld	fa2,224(s0)
  48:	0800                	addi	s0,sp,16
  4a:	0a01                	addi	s4,s4,0
  4c:	0b              	Address 0x000000000000004c is out of bounds.


Disassembly of section .debug_aranges:

00000000 <.debug_aranges>:
   0:	001c                	0x1c
   2:	0000                	unimp
   4:	0002                	c.slli64	zero
   6:	0000                	unimp
   8:	0000                	unimp
   a:	0004                	0x4
   c:	0000                	unimp
   e:	0000                	unimp
  10:	1c04                	addi	s1,sp,560
  12:	0001                	nop
  14:	012c                	addi	a1,sp,136
	...

Disassembly of section .debug_info:

00000000 <.debug_info>:
   0:	00000287          	vle8.v	v5,(zero),v0.t
   4:	0004                	0x4
   6:	0000                	unimp
   8:	0000                	unimp
   a:	0104                	addi	s1,sp,128
   c:	01b2                	slli	gp,gp,0xc
   e:	0000                	unimp
  10:	6d0c                	flw	fa1,24(a0)
  12:	0000                	unimp
  14:	f600                	fsw	fs0,40(a2)
  16:	0000                	unimp
  18:	0400                	addi	s0,sp,512
  1a:	011c                	addi	a5,sp,128
  1c:	2c00                	fld	fs0,24(s0)
  1e:	0001                	nop
  20:	0000                	unimp
  22:	0000                	unimp
  24:	0200                	addi	s0,sp,256
  26:	0404                	addi	s1,sp,512
  28:	0060                	addi	s0,sp,12
  2a:	0000                	unimp
  2c:	69050403          	lb	s0,1680(a0)
  30:	746e                	flw	fs0,248(sp)
  32:	0200                	addi	s0,sp,256
  34:	0601                	addi	a2,a2,0
  36:	00a1                	addi	ra,ra,8
  38:	0000                	unimp
  3a:	0802                	c.slli64	a6
  3c:	9305                	srli	a4,a4,0x21
  3e:	0001                	nop
  40:	0200                	addi	s0,sp,256
  42:	0801                	addi	a6,a6,0
  44:	009f 0000 0402      	0x4020000009f
  4a:	00016d07          	vle32.v	v26,(sp),v0.t
  4e:	0200                	addi	s0,sp,256
  50:	0708                	addi	a0,sp,896
  52:	00000163          	beqz	zero,54 <register_fini-0x10020>
  56:	0202                	c.slli64	tp
  58:	0000dc07          	vle16.v	v24,(ra),v0.t
  5c:	0400                	addi	s0,sp,512
  5e:	000000ef          	jal	ra,5e <register_fini-0x10016>
  62:	3e02                	fld	ft8,32(sp)
  64:	0000690f          	0x690f
  68:	0200                	addi	s0,sp,256
  6a:	0402                	c.slli64	s0
  6c:	00000013          	nop
  70:	0405                	addi	s0,s0,1
  72:	4302                	lw	t1,0(sp)
  74:	0000aa03          	lw	s4,0(ra) # 10100 <__do_global_dtors_aux+0x28>
  78:	0600                	addi	s0,sp,768
  7a:	015e                	slli	sp,sp,0x17
  7c:	0000                	unimp
  7e:	4a02                	lw	s4,0(sp)
  80:	480e                	lw	a6,192(sp)
  82:	0000                	unimp
  84:	0400                	addi	s0,sp,512
  86:	160a                	slli	a2,a2,0x22
  88:	0700                	addi	s0,sp,896
  8a:	7865                	lui	a6,0xffff9
  8c:	0070                	addi	a2,sp,12
  8e:	4b02                	lw	s6,0(sp)
  90:	480e                	lw	a6,192(sp)
  92:	0000                	unimp
  94:	0400                	addi	s0,sp,512
  96:	1105                	addi	sp,sp,-31
  98:	0600                	addi	s0,sp,768
  9a:	000000d7          	vadd.vv	v1,v0,v0,v0.t
  9e:	4c02                	lw	s8,0(sp)
  a0:	480e                	lw	a6,192(sp)
  a2:	0000                	unimp
  a4:	0400                	addi	s0,sp,512
  a6:	1001                	c.nop	-32
  a8:	0000                	unimp
  aa:	7108                	flw	fa0,32(a0)
  ac:	0002                	c.slli64	zero
  ae:	0400                	addi	s0,sp,512
  b0:	4002                	0x4002
  b2:	0000d007          	vle16.v	v0,(ra),v0.t
  b6:	0900                	addi	s0,sp,144
  b8:	6c66                	flw	fs8,88(sp)
  ba:	0074                	addi	a3,sp,12
  bc:	4202                	lw	tp,0(sp)
  be:	5d0a                	lw	s10,160(sp)
  c0:	0000                	unimp
  c2:	0a00                	addi	s0,sp,272
  c4:	01a1                	addi	gp,gp,8
  c6:	0000                	unimp
  c8:	4e02                	lw	t3,0(sp)
  ca:	7005                	c.lui	zero,0xfffe1
  cc:	0000                	unimp
  ce:	0000                	unimp
  d0:	6604                	flw	fs1,8(a2)
  d2:	0000                	unimp
  d4:	0300                	addi	s0,sp,384
  d6:	0f45                	addi	t5,t5,17
  d8:	0025                	c.nop	9
  da:	0000                	unimp
  dc:	0405                	addi	s0,s0,1
  de:	16034a03          	lbu	s4,352(t1) # ffffa160 <__global_pointer$+0xfffe6760>
  e2:	0001                	nop
  e4:	0600                	addi	s0,sp,768
  e6:	015e                	slli	sp,sp,0x17
  e8:	0000                	unimp
  ea:	480e5103          	lhu	sp,1152(t3)
  ee:	0000                	unimp
  f0:	0400                	addi	s0,sp,512
  f2:	07000917          	auipc	s2,0x7000
  f6:	7865                	lui	a6,0xffff9
  f8:	0070                	addi	a2,sp,12
  fa:	480e5203          	lhu	tp,1152(t3)
  fe:	0000                	unimp
 100:	0400                	addi	s0,sp,512
 102:	0108                	addi	a0,sp,128
 104:	0600                	addi	s0,sp,768
 106:	000000d7          	vadd.vv	v1,v0,v0,v0.t
 10a:	480e5303          	lhu	t1,1152(t3)
 10e:	0000                	unimp
 110:	0400                	addi	s0,sp,512
 112:	0001                	nop
 114:	0000                	unimp
 116:	a608                	fsd	fa0,8(a2)
 118:	0001                	nop
 11a:	0400                	addi	s0,sp,512
 11c:	3c074703          	lbu	a4,960(a4)
 120:	0001                	nop
 122:	0900                	addi	s0,sp,144
 124:	6c66                	flw	fs8,88(sp)
 126:	0074                	addi	a3,sp,12
 128:	d00a4903          	lbu	s2,-768(s4)
 12c:	0000                	unimp
 12e:	0a00                	addi	s0,sp,272
 130:	01a1                	addi	gp,gp,8
 132:	0000                	unimp
 134:	dc055503          	lhu	a0,-576(a0)
 138:	0000                	unimp
 13a:	0000                	unimp
 13c:	00025f0b          	0x25f0b
 140:	0100                	addi	s0,sp,128
 142:	0122                	slli	sp,sp,0x8
 144:	005d                	c.nop	23
 146:	0000                	unimp
 148:	1c04                	addi	s1,sp,560
 14a:	0001                	nop
 14c:	012c                	addi	a1,sp,136
 14e:	0000                	unimp
 150:	9c01                	0x9c01
 152:	027c                	addi	a5,sp,268
 154:	0000                	unimp
 156:	610c                	flw	fa1,0(a0)
 158:	0100                	addi	s0,sp,128
 15a:	1622                	slli	a2,a2,0x28
 15c:	00d0                	addi	a2,sp,68
 15e:	0000                	unimp
 160:	0000                	unimp
 162:	0000                	unimp
 164:	1c0d                	addi	s8,s8,-29
 166:	0000                	unimp
 168:	0100                	addi	s0,sp,128
 16a:	0324                	addi	s1,sp,392
 16c:	002c                	addi	a1,sp,8
 16e:	0000                	unimp
 170:	00000023          	sb	zero,0(zero) # 0 <register_fini-0x10074>
 174:	6c0e                	flw	fs8,192(sp)
 176:	0002                	c.slli64	zero
 178:	0100                	addi	s0,sp,128
 17a:	0324                	addi	s1,sp,392
 17c:	002c                	addi	a1,sp,8
 17e:	0000                	unimp
 180:	0f00                	addi	s0,sp,912
 182:	5f41                	li	t5,-16
 184:	25010063          	beq	sp,a6,3c4 <register_fini-0xfcb0>
 188:	00027c03          	0x27c03
 18c:	1000                	addi	s0,sp,32
 18e:	5f41                	li	t5,-16
 190:	25010073          	0x25010073
 194:	00027c03          	0x27c03
 198:	6700                	flw	fs0,8(a4)
 19a:	0000                	unimp
 19c:	1000                	addi	s0,sp,32
 19e:	5f41                	li	t5,-16
 1a0:	0065                	c.nop	25
 1a2:	2501                	jal	7a2 <register_fini-0xf8d2>
 1a4:	00027c03          	0x27c03
 1a8:	9100                	0x9100
 1aa:	0000                	unimp
 1ac:	1000                	addi	s0,sp,32
 1ae:	5f41                	li	t5,-16
 1b0:	0066                	c.slli	zero,0x19
 1b2:	2501                	jal	7b2 <register_fini-0xf8c2>
 1b4:	00028303          	lb	t1,0(t0) # 11eb0 <memset+0xb4>
 1b8:	ec00                	fsw	fs0,24(s0)
 1ba:	0000                	unimp
 1bc:	0f00                	addi	s0,sp,912
 1be:	5f52                	lw	t5,52(sp)
 1c0:	26010063          	beqz	sp,420 <register_fini-0xfc54>
 1c4:	00027c03          	0x27c03
 1c8:	1000                	addi	s0,sp,32
 1ca:	5f52                	lw	t5,52(sp)
 1cc:	26010073          	0x26010073
 1d0:	00027c03          	0x27c03
 1d4:	5b00                	lw	s0,48(a4)
 1d6:	0001                	nop
 1d8:	1000                	addi	s0,sp,32
 1da:	5f52                	lw	t5,52(sp)
 1dc:	0065                	c.nop	25
 1de:	2601                	jal	4de <register_fini-0xfb96>
 1e0:	00027c03          	0x27c03
 1e4:	8500                	0x8500
 1e6:	0001                	nop
 1e8:	1000                	addi	s0,sp,32
 1ea:	5f52                	lw	t5,52(sp)
 1ec:	0066                	c.slli	zero,0x19
 1ee:	2601                	jal	4ee <register_fini-0xfb86>
 1f0:	00028303          	lb	t1,0(t0)
 1f4:	0300                	addi	s0,sp,384
 1f6:	0002                	c.slli64	zero
 1f8:	0f00                	addi	s0,sp,912
 1fa:	0072                	c.slli	zero,0x1c
 1fc:	2701                	jal	8fc <register_fini-0xf778>
 1fe:	5d0a                	lw	s10,160(sp)
 200:	0000                	unimp
 202:	1100                	addi	s0,sp,160
 204:	0000                	unimp
 206:	0000                	unimp
 208:	0219                	addi	tp,tp,6
 20a:	0000                	unimp
 20c:	ad12                	fsd	ft4,152(sp)
 20e:	0000                	unimp
 210:	0100                	addi	s0,sp,128
 212:	032a                	slli	t1,t1,0xa
 214:	0116                	slli	sp,sp,0x5
 216:	0000                	unimp
 218:	1100                	addi	s0,sp,160
 21a:	0020                	addi	s0,sp,8
 21c:	0000                	unimp
 21e:	0261                	addi	tp,tp,24
 220:	0000                	unimp
 222:	7a12                	flw	fs4,36(sp)
 224:	0001                	nop
 226:	0100                	addi	s0,sp,128
 228:	032c                	addi	a1,sp,392
 22a:	002c                	addi	a1,sp,8
 22c:	0000                	unimp
 22e:	00211213          	slli	tp,sp,0x2
 232:	0000                	unimp
 234:	2c01                	jal	444 <register_fini-0xfc30>
 236:	00027c03          	0x27c03
 23a:	1200                	addi	s0,sp,288
 23c:	00c2                	slli	ra,ra,0x10
 23e:	0000                	unimp
 240:	2c01                	jal	450 <register_fini-0xfc24>
 242:	00027c03          	0x27c03
 246:	1200                	addi	s0,sp,288
 248:	0036                	c.slli	zero,0xd
 24a:	0000                	unimp
 24c:	2c01                	jal	45c <register_fini-0xfc18>
 24e:	00027c03          	0x27c03
 252:	1200                	addi	s0,sp,288
 254:	0000004b          	fnmsub.s	ft0,ft0,ft0,ft0,rne
 258:	2c01                	jal	468 <register_fini-0xfc0c>
 25a:	00028303          	lb	t1,0(t0)
 25e:	0000                	unimp
 260:	1400                	addi	s0,sp,544
 262:	1cf0                	addi	a2,sp,636
 264:	0001                	nop
 266:	0014                	0x14
 268:	0000                	unimp
 26a:	000d                	c.nop	3
 26c:	0000                	unimp
 26e:	0100                	addi	s0,sp,128
 270:	032c                	addi	a1,sp,392
 272:	00aa                	slli	ra,ra,0xa
 274:	0000                	unimp
 276:	0289                	addi	t0,t0,2
 278:	0000                	unimp
 27a:	0000                	unimp
 27c:	0402                	c.slli64	s0
 27e:	9805                	andi	s0,s0,-31
 280:	0001                	nop
 282:	0200                	addi	s0,sp,256
 284:	0704                	addi	s1,sp,896
 286:	0168                	addi	a0,sp,140
 288:	0000                	unimp
	...

Disassembly of section .debug_abbrev:

00000000 <.debug_abbrev>:
   0:	1101                	addi	sp,sp,-32
   2:	2501                	jal	602 <register_fini-0xfa72>
   4:	130e                	slli	t1,t1,0x23
   6:	1b0e030b          	0x1b0e030b
   a:	110e                	slli	sp,sp,0x23
   c:	1201                	addi	tp,tp,-32
   e:	1006                	c.slli	zero,0x21
  10:	02000017          	auipc	zero,0x2000
  14:	0024                	addi	s1,sp,8
  16:	0b3e0b0b          	0xb3e0b0b
  1a:	00000e03          	lb	t3,0(zero) # 0 <register_fini-0x10074>
  1e:	0b002403          	lw	s0,176(zero) # b0 <register_fini-0xffc4>
  22:	030b3e0b          	0x30b3e0b
  26:	0008                	0x8
  28:	0400                	addi	s0,sp,512
  2a:	0016                	c.slli	zero,0x5
  2c:	0b3a0e03          	lb	t3,179(s4)
  30:	0b390b3b          	0xb390b3b
  34:	1349                	addi	t1,t1,-14
  36:	0000                	unimp
  38:	1305                	addi	t1,t1,-31
  3a:	0b01                	addi	s6,s6,0
  3c:	3b0b3a0b          	0x3b0b3a0b
  40:	010b390b          	0x10b390b
  44:	06000013          	li	zero,96
  48:	000d                	c.nop	3
  4a:	0b3a0e03          	lb	t3,179(s4)
  4e:	0b390b3b          	0xb390b3b
  52:	1349                	addi	t1,t1,-14
  54:	0b0d0b0b          	0xb0d0b0b
  58:	0b0c                	addi	a1,sp,400
  5a:	0b38                	addi	a4,sp,408
  5c:	0000                	unimp
  5e:	03000d07          	vle8ff.v	v26,(zero)
  62:	3a08                	fld	fa0,48(a2)
  64:	390b3b0b          	0x390b3b0b
  68:	0b13490b          	0xb13490b
  6c:	0c0b0d0b          	0xc0b0d0b
  70:	000b380b          	0xb380b
  74:	0800                	addi	s0,sp,16
  76:	0e030117          	auipc	sp,0xe030
  7a:	0b3a0b0b          	0xb3a0b0b
  7e:	0b390b3b          	0xb390b3b
  82:	1301                	addi	t1,t1,-32
  84:	0000                	unimp
  86:	0d09                	addi	s10,s10,2
  88:	0300                	addi	s0,sp,384
  8a:	3a08                	fld	fa0,48(a2)
  8c:	390b3b0b          	0x390b3b0b
  90:	0013490b          	0x13490b
  94:	0a00                	addi	s0,sp,272
  96:	000d                	c.nop	3
  98:	0b3a0e03          	lb	t3,179(s4)
  9c:	0b390b3b          	0xb390b3b
  a0:	1349                	addi	t1,t1,-14
  a2:	0000                	unimp
  a4:	3f012e0b          	0x3f012e0b
  a8:	0319                	addi	t1,t1,6
  aa:	3a0e                	fld	fs4,224(sp)
  ac:	390b3b0b          	0x390b3b0b
  b0:	4919270b          	0x4919270b
  b4:	12011113          	0x12011113
  b8:	4006                	0x4006
  ba:	9718                	0x9718
  bc:	1942                	slli	s2,s2,0x30
  be:	1301                	addi	t1,t1,-32
  c0:	0000                	unimp
  c2:	050c                	addi	a1,sp,640
  c4:	0300                	addi	s0,sp,384
  c6:	3a08                	fld	fa0,48(a2)
  c8:	390b3b0b          	0x390b3b0b
  cc:	0213490b          	0x213490b
  d0:	0d000017          	auipc	zero,0xd000
  d4:	0034                	addi	a3,sp,8
  d6:	0b3a0e03          	lb	t3,179(s4)
  da:	0b390b3b          	0xb390b3b
  de:	1349                	addi	t1,t1,-14
  e0:	1702                	slli	a4,a4,0x20
  e2:	0000                	unimp
  e4:	340e                	fld	fs0,224(sp)
  e6:	0300                	addi	s0,sp,384
  e8:	3a0e                	fld	fs4,224(sp)
  ea:	390b3b0b          	0x390b3b0b
  ee:	1c13490b          	0x1c13490b
  f2:	0f00000b          	0xf00000b
  f6:	0034                	addi	a3,sp,8
  f8:	0b3a0803          	lb	a6,179(s4)
  fc:	0b390b3b          	0xb390b3b
 100:	1349                	addi	t1,t1,-14
 102:	0000                	unimp
 104:	3410                	fld	fa2,40(s0)
 106:	0300                	addi	s0,sp,384
 108:	3a08                	fld	fa0,48(a2)
 10a:	390b3b0b          	0x390b3b0b
 10e:	0213490b          	0x213490b
 112:	11000017          	auipc	zero,0x11000
 116:	1755010b          	0x1755010b
 11a:	1301                	addi	t1,t1,-32
 11c:	0000                	unimp
 11e:	3412                	fld	fs0,288(sp)
 120:	0300                	addi	s0,sp,384
 122:	3a0e                	fld	fs4,224(sp)
 124:	390b3b0b          	0x390b3b0b
 128:	0013490b          	0x13490b
 12c:	1300                	addi	s0,sp,416
 12e:	0000010b          	0x10b
 132:	0b14                	addi	a3,sp,400
 134:	1101                	addi	sp,sp,-32
 136:	1201                	addi	tp,tp,-32
 138:	0006                	c.slli	zero,0x1
	...

Disassembly of section .debug_line:

00000000 <.debug_line>:
   0:	03e6                	slli	t2,t2,0x19
   2:	0000                	unimp
   4:	005e0003          	lb	zero,5(t3)
   8:	0000                	unimp
   a:	0101                	addi	sp,sp,0
   c:	000d0efb          	0xd0efb
  10:	0101                	addi	sp,sp,0
  12:	0101                	addi	sp,sp,0
  14:	0000                	unimp
  16:	0100                	addi	s0,sp,128
  18:	0000                	unimp
  1a:	2e01                	jal	32a <register_fini-0xfd4a>
  1c:	2f2e                	fld	ft10,200(sp)
  1e:	2e2e                	fld	ft8,200(sp)
  20:	2f2e2e2f          	0x2f2e2e2f
  24:	2e2e                	fld	ft8,200(sp)
  26:	7369722f          	0x7369722f
  2a:	672d7663          	bgeu	s10,s2,696 <register_fini-0xf9de>
  2e:	6c2f6363          	bltu	t5,sp,6f4 <register_fini-0xf980>
  32:	6269                	lui	tp,0x1a
  34:	2f636367          	0x2f636367
  38:	74666f73          	csrrsi	t5,0x746,12
  3c:	662d                	lui	a2,0xb
  3e:	0070                	addi	a2,sp,12
  40:	7400                	flw	fs0,40(s0)
  42:	7572                	flw	fa0,60(sp)
  44:	636e                	flw	ft6,216(sp)
  46:	66686673          	csrrsi	a2,0x666,16
  4a:	2e32                	fld	ft8,264(sp)
  4c:	00010063          	beqz	sp,4c <register_fini-0x10028>
  50:	6800                	flw	fs0,16(s0)
  52:	6c61                	lui	s8,0x18
  54:	2e66                	fld	ft8,88(sp)
  56:	0068                	addi	a0,sp,12
  58:	0001                	nop
  5a:	7300                	flw	fs0,32(a4)
  5c:	6e69                	lui	t3,0x1a
  5e:	2e656c67          	0x2e656c67
  62:	0068                	addi	a0,sp,12
  64:	0001                	nop
  66:	0000                	unimp
  68:	0105                	addi	sp,sp,1
  6a:	0500                	addi	s0,sp,640
  6c:	0402                	c.slli64	s0
  6e:	011c                	addi	a5,sp,128
  70:	0300                	addi	s0,sp,384
  72:	0122                	slli	sp,sp,0x8
  74:	0305                	addi	t1,t1,1
  76:	00090103          	lb	sp,0(s2) # 70000f2 <__global_pointer$+0x6fec6f2>
  7a:	0100                	addi	s0,sp,128
  7c:	00090003          	lb	zero,0(s2)
  80:	0100                	addi	s0,sp,128
  82:	0d05                	addi	s10,s10,1
  84:	00090003          	lb	zero,0(s2)
  88:	0100                	addi	s0,sp,128
  8a:	0305                	addi	t1,t1,1
  8c:	00090103          	lb	sp,0(s2)
  90:	0100                	addi	s0,sp,128
  92:	00090003          	lb	zero,0(s2)
  96:	0100                	addi	s0,sp,128
  98:	00090003          	lb	zero,0(s2)
  9c:	0100                	addi	s0,sp,128
  9e:	00090003          	lb	zero,0(s2)
  a2:	0100                	addi	s0,sp,128
  a4:	00090103          	lb	sp,0(s2)
  a8:	0100                	addi	s0,sp,128
  aa:	00090003          	lb	zero,0(s2)
  ae:	0100                	addi	s0,sp,128
  b0:	00090003          	lb	zero,0(s2)
  b4:	0100                	addi	s0,sp,128
  b6:	00090003          	lb	zero,0(s2)
  ba:	0100                	addi	s0,sp,128
  bc:	00090103          	lb	sp,0(s2)
  c0:	0100                	addi	s0,sp,128
  c2:	00090203          	lb	tp,0(s2)
  c6:	0100                	addi	s0,sp,128
  c8:	00090103          	lb	sp,0(s2)
  cc:	0100                	addi	s0,sp,128
  ce:	00090003          	lb	zero,0(s2)
  d2:	0100                	addi	s0,sp,128
  d4:	00090003          	lb	zero,0(s2)
  d8:	0100                	addi	s0,sp,128
  da:	00090003          	lb	zero,0(s2)
  de:	0100                	addi	s0,sp,128
  e0:	00090003          	lb	zero,0(s2)
  e4:	0100                	addi	s0,sp,128
  e6:	0306                	slli	t1,t1,0x1
  e8:	0901                	addi	s2,s2,0
  ea:	0008                	0x8
  ec:	0301                	addi	t1,t1,0
  ee:	097f                	0x97f
  f0:	0004                	0x4
  f2:	0301                	addi	t1,t1,0
  f4:	0901                	addi	s2,s2,0
  f6:	0004                	0x4
  f8:	0301                	addi	t1,t1,0
  fa:	097f                	0x97f
  fc:	0004                	0x4
  fe:	0601                	addi	a2,a2,0
 100:	04090003          	lb	zero,64(s2)
 104:	0100                	addi	s0,sp,128
 106:	00090003          	lb	zero,0(s2)
 10a:	0100                	addi	s0,sp,128
 10c:	04090003          	lb	zero,64(s2)
 110:	0100                	addi	s0,sp,128
 112:	00090003          	lb	zero,0(s2)
 116:	0100                	addi	s0,sp,128
 118:	00090003          	lb	zero,0(s2)
 11c:	0100                	addi	s0,sp,128
 11e:	00090003          	lb	zero,0(s2)
 122:	0100                	addi	s0,sp,128
 124:	04090003          	lb	zero,64(s2)
 128:	0100                	addi	s0,sp,128
 12a:	00090003          	lb	zero,0(s2)
 12e:	0100                	addi	s0,sp,128
 130:	00090103          	lb	sp,0(s2)
 134:	0100                	addi	s0,sp,128
 136:	00090003          	lb	zero,0(s2)
 13a:	0100                	addi	s0,sp,128
 13c:	00090003          	lb	zero,0(s2)
 140:	0100                	addi	s0,sp,128
 142:	00090003          	lb	zero,0(s2)
 146:	0100                	addi	s0,sp,128
 148:	00090003          	lb	zero,0(s2)
 14c:	0100                	addi	s0,sp,128
 14e:	0200                	addi	s0,sp,256
 150:	0104                	addi	s1,sp,128
 152:	04090003          	lb	zero,64(s2)
 156:	0100                	addi	s0,sp,128
 158:	0200                	addi	s0,sp,256
 15a:	0104                	addi	s1,sp,128
 15c:	04090003          	lb	zero,64(s2)
 160:	0100                	addi	s0,sp,128
 162:	0200                	addi	s0,sp,256
 164:	0404                	addi	s1,sp,512
 166:	08090003          	lb	zero,128(s2)
 16a:	0100                	addi	s0,sp,128
 16c:	0200                	addi	s0,sp,256
 16e:	1104                	addi	s1,sp,160
 170:	04090003          	lb	zero,64(s2)
 174:	0100                	addi	s0,sp,128
 176:	0200                	addi	s0,sp,256
 178:	1404                	addi	s1,sp,544
 17a:	08090003          	lb	zero,128(s2)
 17e:	0100                	addi	s0,sp,128
 180:	0200                	addi	s0,sp,256
 182:	1404                	addi	s1,sp,544
 184:	08090003          	lb	zero,128(s2)
 188:	0100                	addi	s0,sp,128
 18a:	0200                	addi	s0,sp,256
 18c:	2304                	fld	fs1,0(a4)
 18e:	0306                	slli	t1,t1,0x1
 190:	0900                	addi	s0,sp,144
 192:	001c                	0x1c
 194:	0001                	nop
 196:	0402                	c.slli64	s0
 198:	063a                	slli	a2,a2,0xe
 19a:	04090003          	lb	zero,64(s2)
 19e:	0100                	addi	s0,sp,128
 1a0:	0200                	addi	s0,sp,256
 1a2:	3a04                	fld	fs1,48(a2)
 1a4:	00090003          	lb	zero,0(s2)
 1a8:	0100                	addi	s0,sp,128
 1aa:	0200                	addi	s0,sp,256
 1ac:	3a04                	fld	fs1,48(a2)
 1ae:	00090103          	lb	sp,0(s2)
 1b2:	0100                	addi	s0,sp,128
 1b4:	0200                	addi	s0,sp,256
 1b6:	3a04                	fld	fs1,48(a2)
 1b8:	00090003          	lb	zero,0(s2)
 1bc:	0100                	addi	s0,sp,128
 1be:	0200                	addi	s0,sp,256
 1c0:	3a04                	fld	fs1,48(a2)
 1c2:	00090003          	lb	zero,0(s2)
 1c6:	0100                	addi	s0,sp,128
 1c8:	0200                	addi	s0,sp,256
 1ca:	3a04                	fld	fs1,48(a2)
 1cc:	00090003          	lb	zero,0(s2)
 1d0:	0100                	addi	s0,sp,128
 1d2:	0200                	addi	s0,sp,256
 1d4:	3a04                	fld	fs1,48(a2)
 1d6:	00090003          	lb	zero,0(s2)
 1da:	0100                	addi	s0,sp,128
 1dc:	0200                	addi	s0,sp,256
 1de:	1204                	addi	s1,sp,288
 1e0:	0c097f03          	0xc097f03
 1e4:	0100                	addi	s0,sp,128
 1e6:	0200                	addi	s0,sp,256
 1e8:	3104                	fld	fs1,32(a0)
 1ea:	0306                	slli	t1,t1,0x1
 1ec:	0900                	addi	s0,sp,144
 1ee:	000c                	0xc
 1f0:	0001                	nop
 1f2:	0402                	c.slli64	s0
 1f4:	0602                	c.slli64	a2
 1f6:	08090003          	lb	zero,128(s2)
 1fa:	0100                	addi	s0,sp,128
 1fc:	0200                	addi	s0,sp,256
 1fe:	2304                	fld	fs1,0(a4)
 200:	04090003          	lb	zero,64(s2)
 204:	0100                	addi	s0,sp,128
 206:	0200                	addi	s0,sp,256
 208:	2304                	fld	fs1,0(a4)
 20a:	00090003          	lb	zero,0(s2)
 20e:	0100                	addi	s0,sp,128
 210:	0200                	addi	s0,sp,256
 212:	2304                	fld	fs1,0(a4)
 214:	00090003          	lb	zero,0(s2)
 218:	0100                	addi	s0,sp,128
 21a:	0200                	addi	s0,sp,256
 21c:	2304                	fld	fs1,0(a4)
 21e:	00090003          	lb	zero,0(s2)
 222:	0100                	addi	s0,sp,128
 224:	0200                	addi	s0,sp,256
 226:	2304                	fld	fs1,0(a4)
 228:	00090003          	lb	zero,0(s2)
 22c:	0100                	addi	s0,sp,128
 22e:	0200                	addi	s0,sp,256
 230:	2004                	fld	fs1,0(s0)
 232:	08090003          	lb	zero,128(s2)
 236:	0100                	addi	s0,sp,128
 238:	0200                	addi	s0,sp,256
 23a:	2004                	fld	fs1,0(s0)
 23c:	00090003          	lb	zero,0(s2)
 240:	0100                	addi	s0,sp,128
 242:	0200                	addi	s0,sp,256
 244:	3104                	fld	fs1,32(a0)
 246:	08090003          	lb	zero,128(s2)
 24a:	0100                	addi	s0,sp,128
 24c:	0200                	addi	s0,sp,256
 24e:	3104                	fld	fs1,32(a0)
 250:	00090003          	lb	zero,0(s2)
 254:	0100                	addi	s0,sp,128
 256:	0200                	addi	s0,sp,256
 258:	3104                	fld	fs1,32(a0)
 25a:	00090003          	lb	zero,0(s2)
 25e:	0100                	addi	s0,sp,128
 260:	0200                	addi	s0,sp,256
 262:	3104                	fld	fs1,32(a0)
 264:	00090003          	lb	zero,0(s2)
 268:	0100                	addi	s0,sp,128
 26a:	0200                	addi	s0,sp,256
 26c:	3104                	fld	fs1,32(a0)
 26e:	00090003          	lb	zero,0(s2)
 272:	0100                	addi	s0,sp,128
 274:	0200                	addi	s0,sp,256
 276:	3104                	fld	fs1,32(a0)
 278:	00090003          	lb	zero,0(s2)
 27c:	0100                	addi	s0,sp,128
 27e:	0200                	addi	s0,sp,256
 280:	3104                	fld	fs1,32(a0)
 282:	08090003          	lb	zero,128(s2)
 286:	0100                	addi	s0,sp,128
 288:	0200                	addi	s0,sp,256
 28a:	3104                	fld	fs1,32(a0)
 28c:	00090003          	lb	zero,0(s2)
 290:	0100                	addi	s0,sp,128
 292:	0200                	addi	s0,sp,256
 294:	3104                	fld	fs1,32(a0)
 296:	00090003          	lb	zero,0(s2)
 29a:	0100                	addi	s0,sp,128
 29c:	0200                	addi	s0,sp,256
 29e:	2f04                	fld	fs1,24(a4)
 2a0:	10090103          	lb	sp,256(s2)
 2a4:	0100                	addi	s0,sp,128
 2a6:	0200                	addi	s0,sp,256
 2a8:	2f04                	fld	fs1,24(a4)
 2aa:	00090003          	lb	zero,0(s2)
 2ae:	0100                	addi	s0,sp,128
 2b0:	0200                	addi	s0,sp,256
 2b2:	2f04                	fld	fs1,24(a4)
 2b4:	00090003          	lb	zero,0(s2)
 2b8:	0100                	addi	s0,sp,128
 2ba:	0200                	addi	s0,sp,256
 2bc:	3f04                	fld	fs1,56(a4)
 2be:	0c090003          	lb	zero,192(s2)
 2c2:	0100                	addi	s0,sp,128
 2c4:	0200                	addi	s0,sp,256
 2c6:	3f04                	fld	fs1,56(a4)
 2c8:	00090003          	lb	zero,0(s2)
 2cc:	0100                	addi	s0,sp,128
 2ce:	0200                	addi	s0,sp,256
 2d0:	3f04                	fld	fs1,56(a4)
 2d2:	04090003          	lb	zero,64(s2)
 2d6:	0100                	addi	s0,sp,128
 2d8:	0306                	slli	t1,t1,0x1
 2da:	0900                	addi	s0,sp,144
 2dc:	0008                	0x8
 2de:	0001                	nop
 2e0:	0402                	c.slli64	s0
 2e2:	0003064f          	fnmadd.s	fa2,ft6,ft0,ft0,rne
 2e6:	0c09                	addi	s8,s8,2
 2e8:	0100                	addi	s0,sp,128
 2ea:	0200                	addi	s0,sp,256
 2ec:	4f04                	lw	s1,24(a4)
 2ee:	00090003          	lb	zero,0(s2)
 2f2:	0100                	addi	s0,sp,128
 2f4:	0200                	addi	s0,sp,256
 2f6:	4f04                	lw	s1,24(a4)
 2f8:	08090003          	lb	zero,128(s2)
 2fc:	0100                	addi	s0,sp,128
 2fe:	0200                	addi	s0,sp,256
 300:	5004                	lw	s1,32(s0)
 302:	0306                	slli	t1,t1,0x1
 304:	0900                	addi	s0,sp,144
 306:	0004                	0x4
 308:	0301                	addi	t1,t1,0
 30a:	0900                	addi	s0,sp,144
 30c:	0004                	0x4
 30e:	0001                	nop
 310:	0402                	c.slli64	s0
 312:	065a                	slli	a2,a2,0x16
 314:	08090003          	lb	zero,128(s2)
 318:	0100                	addi	s0,sp,128
 31a:	0200                	addi	s0,sp,256
 31c:	5a04                	lw	s1,48(a2)
 31e:	00090003          	lb	zero,0(s2)
 322:	0100                	addi	s0,sp,128
 324:	0200                	addi	s0,sp,256
 326:	5a04                	lw	s1,48(a2)
 328:	00090003          	lb	zero,0(s2)
 32c:	0100                	addi	s0,sp,128
 32e:	0200                	addi	s0,sp,256
 330:	5a04                	lw	s1,48(a2)
 332:	00090003          	lb	zero,0(s2)
 336:	0100                	addi	s0,sp,128
 338:	0200                	addi	s0,sp,256
 33a:	5a04                	lw	s1,48(a2)
 33c:	00090003          	lb	zero,0(s2)
 340:	0100                	addi	s0,sp,128
 342:	0200                	addi	s0,sp,256
 344:	5a04                	lw	s1,48(a2)
 346:	00090003          	lb	zero,0(s2)
 34a:	0100                	addi	s0,sp,128
 34c:	0200                	addi	s0,sp,256
 34e:	5a04                	lw	s1,48(a2)
 350:	00090003          	lb	zero,0(s2)
 354:	0100                	addi	s0,sp,128
 356:	0200                	addi	s0,sp,256
 358:	5a04                	lw	s1,48(a2)
 35a:	00090003          	lb	zero,0(s2)
 35e:	0100                	addi	s0,sp,128
 360:	0200                	addi	s0,sp,256
 362:	5a04                	lw	s1,48(a2)
 364:	14090003          	lb	zero,320(s2)
 368:	0100                	addi	s0,sp,128
 36a:	0200                	addi	s0,sp,256
 36c:	5a04                	lw	s1,48(a2)
 36e:	00090003          	lb	zero,0(s2)
 372:	0100                	addi	s0,sp,128
 374:	0200                	addi	s0,sp,256
 376:	5a04                	lw	s1,48(a2)
 378:	00090103          	lb	sp,0(s2)
 37c:	0100                	addi	s0,sp,128
 37e:	0200                	addi	s0,sp,256
 380:	5a04                	lw	s1,48(a2)
 382:	00090003          	lb	zero,0(s2)
 386:	0100                	addi	s0,sp,128
 388:	0200                	addi	s0,sp,256
 38a:	5a04                	lw	s1,48(a2)
 38c:	00090003          	lb	zero,0(s2)
 390:	0100                	addi	s0,sp,128
 392:	0200                	addi	s0,sp,256
 394:	5a04                	lw	s1,48(a2)
 396:	00090203          	lb	tp,0(s2)
 39a:	0100                	addi	s0,sp,128
 39c:	0105                	addi	sp,sp,1
 39e:	0200                	addi	s0,sp,256
 3a0:	5a04                	lw	s1,48(a2)
 3a2:	0306                	slli	t1,t1,0x1
 3a4:	0901                	addi	s2,s2,0
 3a6:	0000                	unimp
 3a8:	0501                	addi	a0,a0,0
 3aa:	097b0303          	lb	t1,151(s6)
 3ae:	0008                	0x8
 3b0:	0001                	nop
 3b2:	0402                	c.slli64	s0
 3b4:	0625                	addi	a2,a2,9
 3b6:	08090103          	lb	sp,128(s2)
 3ba:	0100                	addi	s0,sp,128
 3bc:	0200                	addi	s0,sp,256
 3be:	2504                	fld	fs1,8(a0)
 3c0:	00090003          	lb	zero,0(s2)
 3c4:	0100                	addi	s0,sp,128
 3c6:	0200                	addi	s0,sp,256
 3c8:	2504                	fld	fs1,8(a0)
 3ca:	00090003          	lb	zero,0(s2)
 3ce:	0100                	addi	s0,sp,128
 3d0:	0200                	addi	s0,sp,256
 3d2:	2504                	fld	fs1,8(a0)
 3d4:	00090003          	lb	zero,0(s2)
 3d8:	0100                	addi	s0,sp,128
 3da:	0200                	addi	s0,sp,256
 3dc:	2c04                	fld	fs1,24(s0)
 3de:	0c090003          	lb	zero,192(s2)
 3e2:	0100                	addi	s0,sp,128
 3e4:	1009                	c.nop	-30
 3e6:	0000                	unimp
 3e8:	0101                	addi	sp,sp,0

Disassembly of section .debug_frame:

00000000 <.debug_frame>:
   0:	000c                	0xc
   2:	0000                	unimp
   4:	ffff                	0xffff
   6:	ffff                	0xffff
   8:	7c010003          	lb	zero,1984(sp) # e030836 <__global_pointer$+0xe01ce36>
   c:	0d01                	addi	s10,s10,0
   e:	0002                	c.slli64	zero
  10:	000c                	0xc
  12:	0000                	unimp
  14:	0000                	unimp
  16:	0000                	unimp
  18:	1c04                	addi	s1,sp,560
  1a:	0001                	nop
  1c:	012c                	addi	a1,sp,136
	...

Disassembly of section .debug_str:

00000000 <.debug_str>:
   0:	465f 5f50 4150      	0x41505f50465f
   6:	525f4b43          	fmadd.d	fs6,ft10,ft5,fa0,rmm
   a:	5741                	li	a4,-16
   c:	315f 665f 6f6c      	0x6f6c665f315f
  12:	5f00                	lw	s0,56(a4)
  14:	6c46                	flw	fs8,80(sp)
  16:	3174616f          	jal	sp,46b2c <__global_pointer$+0x3312c>
  1a:	0036                	c.slli	zero,0xd
  1c:	665f 7865 5f00      	0x5f007865665f
  22:	5046                	0x5046
  24:	505f 4341 5f4b      	0x5f4b4341505f
  2a:	494d4553          	0x494d4553
  2e:	4152                	lw	sp,20(sp)
  30:	5f545f57          	0x5f545f57
  34:	465f0063          	beq	t5,t0,494 <register_fini-0xfbe0>
  38:	5f50                	lw	a2,60(a4)
  3a:	4150                	lw	a2,4(a0)
  3c:	535f4b43          	fmadd.d	fs6,ft10,fs5,fa0,rmm
  40:	4d45                	li	s10,17
  42:	5249                	li	tp,-14
  44:	5741                	li	a4,-16
  46:	545f 655f 5f00      	0x5f00655f545f
  4c:	5046                	0x5046
  4e:	505f 4341 5f4b      	0x5f4b4341505f
  54:	494d4553          	0x494d4553
  58:	4152                	lw	sp,20(sp)
  5a:	5f545f57          	0x5f545f57
  5e:	0066                	c.slli	zero,0x19
  60:	6c66                	flw	fs8,88(sp)
  62:	0074616f          	jal	sp,46868 <__global_pointer$+0x32e68>
  66:	79744653          	0x79744653
  6a:	6570                	flw	fa2,76(a0)
  6c:	2e00                	fld	fs0,24(a2)
  6e:	2f2e                	fld	ft10,200(sp)
  70:	2e2e                	fld	ft8,200(sp)
  72:	2f2e2e2f          	0x2f2e2e2f
  76:	2e2e                	fld	ft8,200(sp)
  78:	7369722f          	0x7369722f
  7c:	672d7663          	bgeu	s10,s2,6e8 <register_fini-0xf98c>
  80:	6c2f6363          	bltu	t5,sp,746 <register_fini-0xf92e>
  84:	6269                	lui	tp,0x1a
  86:	2f636367          	0x2f636367
  8a:	74666f73          	csrrsi	t5,0x746,12
  8e:	662d                	lui	a2,0xb
  90:	2f70                	fld	fa2,216(a4)
  92:	7274                	flw	fa3,100(a2)
  94:	6e75                	lui	t3,0x1d
  96:	68667363          	bgeu	a2,t1,71c <register_fini-0xf958>
  9a:	3266                	fld	ft4,120(sp)
  9c:	632e                	flw	ft6,200(sp)
  9e:	7500                	flw	fs0,40(a0)
  a0:	736e                	flw	ft6,248(sp)
  a2:	6769                	lui	a4,0x1a
  a4:	656e                	flw	fa0,216(sp)
  a6:	2064                	fld	fs1,192(s0)
  a8:	72616863          	bltu	sp,t1,7d8 <register_fini-0xf89c>
  ac:	5f00                	lw	s0,56(a4)
  ae:	5046                	0x5046
  b0:	555f 504e 4341      	0x4341504e555f
  b6:	41525f4b          	fnmsub.s	ft10,ft4,fs5,fs0,unknown
  ba:	5f315f57          	0x5f315f57
  be:	6c66                	flw	fs8,88(sp)
  c0:	465f006f          	j	f0d24 <__global_pointer$+0xdd324>
  c4:	5f50                	lw	a2,60(a4)
  c6:	4150                	lw	a2,4(a0)
  c8:	535f4b43          	fmadd.d	fs6,ft10,fs5,fa0,rmm
  cc:	4d45                	li	s10,17
  ce:	5249                	li	tp,-14
  d0:	5741                	li	a4,-16
  d2:	545f 735f 7300      	0x7300735f545f
  d8:	6769                	lui	a4,0x1a
  da:	006e                	c.slli	zero,0x1b
  dc:	726f6873          	csrrsi	a6,0x726,30
  e0:	2074                	fld	fa3,192(s0)
  e2:	6e75                	lui	t3,0x1d
  e4:	6e676973          	csrrsi	s2,0x6e6,14
  e8:	6465                	lui	s0,0x19
  ea:	6920                	flw	fs0,80(a0)
  ec:	746e                	flw	fs0,248(sp)
  ee:	4800                	lw	s0,16(s0)
  f0:	7446                	flw	fs0,112(sp)
  f2:	7079                	c.lui	zero,0xffffe
  f4:	0065                	c.nop	25
  f6:	6d6f682f          	0x6d6f682f
  fa:	2f65                	jal	8b2 <register_fini-0xf7c2>
  fc:	4e55                	li	t3,21
  fe:	2f54                	fld	fa3,152(a4)
 100:	6a74                	flw	fa3,84(a2)
 102:	306d                	jal	fffff9ac <__global_pointer$+0xfffebfac>
 104:	3132                	fld	ft2,296(sp)
 106:	2f34                	fld	fa3,88(a4)
 108:	525f3233          	0x525f3233
 10c:	5349                	li	t1,-14
 10e:	722f5643          	fmadd.d	fa2,ft10,ft2,fa4,unknown
 112:	7369                	lui	t1,0xffffa
 114:	672d7663          	bgeu	s10,s2,780 <register_fini-0xf8f4>
 118:	756e                	flw	fa0,248(sp)
 11a:	742d                	lui	s0,0xfffeb
 11c:	636c6f6f          	jal	t5,c6752 <__global_pointer$+0xb2d52>
 120:	6168                	flw	fa0,68(a0)
 122:	6e69                	lui	t3,0x1a
 124:	6975622f          	0x6975622f
 128:	646c                	flw	fa1,76(s0)
 12a:	6975622f          	0x6975622f
 12e:	646c                	flw	fa1,76(s0)
 130:	672d                	lui	a4,0xb
 132:	6e2d6363          	bltu	s10,sp,818 <register_fini-0xf85c>
 136:	7765                	lui	a4,0xffff9
 138:	696c                	flw	fa1,84(a0)
 13a:	2d62                	fld	fs10,24(sp)
 13c:	67617473          	csrrci	s0,0x676,2
 140:	3265                	jal	fffffae8 <__global_pointer$+0xfffec0e8>
 142:	7369722f          	0x7369722f
 146:	32337663          	bgeu	t1,gp,472 <register_fini-0xfc02>
 14a:	752d                	lui	a0,0xfffeb
 14c:	6b6e                	flw	fs6,216(sp)
 14e:	6f6e                	flw	ft10,216(sp)
 150:	652d6e77          	0x652d6e77
 154:	666c                	flw	fa1,76(a2)
 156:	62696c2f          	vamoandei32.v	zero,(s2),v6,v24
 15a:	00636367          	0x636367
 15e:	7266                	flw	ft4,120(sp)
 160:	6361                	lui	t1,0x18
 162:	6c00                	flw	fs0,24(s0)
 164:	20676e6f          	jal	t3,7636a <__global_pointer$+0x6296a>
 168:	6f6c                	flw	fa1,92(a4)
 16a:	676e                	flw	fa4,216(sp)
 16c:	7520                	flw	fs0,104(a0)
 16e:	736e                	flw	ft6,248(sp)
 170:	6769                	lui	a4,0x1a
 172:	656e                	flw	fa0,216(sp)
 174:	2064                	fld	fs1,192(s0)
 176:	6e69                	lui	t3,0x1a
 178:	0074                	addi	a3,sp,12
 17a:	465f 5f50 4150      	0x41505f50465f
 180:	535f4b43          	fmadd.d	fs6,ft10,fs5,fa0,rmm
 184:	4d45                	li	s10,17
 186:	5249                	li	tp,-14
 188:	5741                	li	a4,-16
 18a:	695f 5f73 6974      	0x69745f73695f
 190:	796e                	flw	fs2,248(sp)
 192:	6c00                	flw	fs0,24(s0)
 194:	20676e6f          	jal	t3,7639a <__global_pointer$+0x6299a>
 198:	6f6c                	flw	fa1,92(a4)
 19a:	676e                	flw	fa4,216(sp)
 19c:	6920                	flw	fs0,80(a0)
 19e:	746e                	flw	fs0,248(sp)
 1a0:	6200                	flw	fs0,0(a2)
 1a2:	7469                	lui	s0,0xffffa
 1a4:	465f0073          	0x465f0073
 1a8:	5f50                	lw	a2,60(a4)
 1aa:	4e55                	li	t3,21
 1ac:	4f49                	li	t5,18
 1ae:	5f4e                	lw	t5,240(sp)
 1b0:	4e470053          	0x4e470053
 1b4:	2055                	jal	258 <register_fini-0xfe1c>
 1b6:	20373143          	fmadd.s	ft2,fa4,ft3,ft4,rup
 1ba:	3031                	jal	fffff9c6 <__global_pointer$+0xfffebfc6>
 1bc:	312e                	fld	ft2,232(sp)
 1be:	302e                	fld	ft0,232(sp)
 1c0:	2d20                	fld	fs0,88(a0)
 1c2:	636d                	lui	t1,0x1b
 1c4:	6f6d                	lui	t5,0x1b
 1c6:	6564                	flw	fs1,76(a0)
 1c8:	3d6c                	fld	fa1,248(a0)
 1ca:	656d                	lui	a0,0x1b
 1cc:	6c64                	flw	fs1,92(s0)
 1ce:	2d20776f          	jal	a4,74a0 <register_fini-0x8bd4>
 1d2:	636d                	lui	t1,0x1b
 1d4:	6f6d                	lui	t5,0x1b
 1d6:	6564                	flw	fs1,76(a0)
 1d8:	3d6c                	fld	fa1,248(a0)
 1da:	656d                	lui	a0,0x1b
 1dc:	6c64                	flw	fs1,92(s0)
 1de:	2d20776f          	jal	a4,74b0 <register_fini-0x8bc4>
 1e2:	746d                	lui	s0,0xffffb
 1e4:	6e75                	lui	t3,0x1d
 1e6:	3d65                	jal	9e <register_fini-0xffd6>
 1e8:	6f72                	flw	ft10,28(sp)
 1ea:	74656b63          	bltu	a0,t1,940 <register_fini-0xf734>
 1ee:	2d20                	fld	fs0,88(a0)
 1f0:	616d                	addi	sp,sp,240
 1f2:	6372                	flw	ft6,28(sp)
 1f4:	3d68                	fld	fa0,248(a0)
 1f6:	7672                	flw	fa2,60(sp)
 1f8:	20693233          	0x20693233
 1fc:	6d2d                	lui	s10,0xb
 1fe:	6261                	lui	tp,0x18
 200:	3d69                	jal	9a <register_fini-0xffda>
 202:	6c69                	lui	s8,0x1a
 204:	3370                	fld	fa2,224(a4)
 206:	2032                	fld	ft0,264(sp)
 208:	6d2d                	lui	s10,0xb
 20a:	7261                	lui	tp,0xffff8
 20c:	723d6863          	bltu	s10,gp,93c <register_fini-0xf738>
 210:	3376                	fld	ft6,376(sp)
 212:	6932                	flw	fs2,12(sp)
 214:	2d20                	fld	fs0,88(a0)
 216:	4f2d2067          	0x4f2d2067
 21a:	4f2d2073          	csrs	0x4f2,s10
 21e:	2032                	fld	ft0,264(sp)
 220:	4f2d                	li	t5,11
 222:	662d2073          	csrs	0x662,s10
 226:	7562                	flw	fa0,56(sp)
 228:	6c69                	lui	s8,0x1a
 22a:	6964                	flw	fs1,84(a0)
 22c:	676e                	flw	fa4,216(sp)
 22e:	6c2d                	lui	s8,0xb
 230:	6269                	lui	tp,0x1a
 232:	20636367          	0x20636367
 236:	662d                	lui	a2,0xb
 238:	6f6e                	flw	ft10,216(sp)
 23a:	732d                	lui	t1,0xfffeb
 23c:	6174                	flw	fa3,68(a0)
 23e:	702d6b63          	bltu	s10,sp,954 <register_fini-0xf720>
 242:	6f72                	flw	ft10,28(sp)
 244:	6574                	flw	fa3,76(a0)
 246:	726f7463          	bgeu	t5,t1,96e <register_fini-0xf706>
 24a:	2d20                	fld	fs0,88(a0)
 24c:	7666                	flw	fa2,120(sp)
 24e:	7369                	lui	t1,0xffffa
 250:	6269                	lui	tp,0x1a
 252:	6c69                	lui	s8,0x1a
 254:	7469                	lui	s0,0xffffa
 256:	3d79                	jal	f4 <register_fini-0xff80>
 258:	6968                	flw	fa0,84(a0)
 25a:	6464                	flw	fs1,76(s0)
 25c:	6e65                	lui	t3,0x19
 25e:	5f00                	lw	s0,56(a4)
 260:	745f 7572 636e      	0x636e7572745f
 266:	66686673          	csrrsi	a2,0x666,16
 26a:	0032                	c.slli	zero,0xc
 26c:	665f 6d72 5f00      	0x5f006d72665f
 272:	5046                	0x5046
 274:	555f 494e 4e4f      	0x4e4f494e555f
 27a:	485f        	0x485f

Disassembly of section .debug_loc:

00000000 <.debug_loc>:
   0:	0000                	unimp
   2:	0000                	unimp
   4:	001c                	0x1c
   6:	0000                	unimp
   8:	0001                	nop
   a:	1c5a                	slli	s8,s8,0x36
   c:	0000                	unimp
   e:	2c00                	fld	fs0,24(s0)
  10:	0001                	nop
  12:	0600                	addi	s0,sp,768
  14:	f300                	fsw	fs0,32(a4)
  16:	250af503          	0x250af503
  1a:	009f 0000 0000      	0x9f
  20:	0000                	unimp
  22:	0000                	unimp
  24:	0000                	unimp
  26:	6400                	flw	fs0,8(s0)
  28:	0000                	unimp
  2a:	0200                	addi	s0,sp,256
  2c:	3000                	fld	fs0,32(s0)
  2e:	709f 0000 7c00      	0x7c000000709f
  34:	0000                	unimp
  36:	0200                	addi	s0,sp,256
  38:	3000                	fld	fs0,32(s0)
  3a:	849f 0000 9800      	0x98000000849f
  40:	0000                	unimp
  42:	0200                	addi	s0,sp,256
  44:	3000                	fld	fs0,32(s0)
  46:	a89f 0000 b000      	0xb0000000a89f
  4c:	0000                	unimp
  4e:	0200                	addi	s0,sp,256
  50:	3000                	fld	fs0,32(s0)
  52:	089f 0001 1000      	0x10000001089f
  58:	0001                	nop
  5a:	0200                	addi	s0,sp,256
  5c:	3000                	fld	fs0,32(s0)
  5e:	009f 0000 0000      	0x9f
  64:	0000                	unimp
  66:	1c00                	addi	s0,sp,560
  68:	0000                	unimp
  6a:	e800                	fsw	fs0,16(s0)
  6c:	0000                	unimp
  6e:	0100                	addi	s0,sp,128
  70:	5a00                	lw	s0,48(a2)
  72:	00e8                	addi	a0,sp,76
  74:	0000                	unimp
  76:	00ec                	addi	a1,sp,76
  78:	0000                	unimp
  7a:	0002                	c.slli64	zero
  7c:	9f30                	0x9f30
  7e:	0108                	addi	a0,sp,128
  80:	0000                	unimp
  82:	012c                	addi	a1,sp,136
  84:	0000                	unimp
  86:	0001                	nop
  88:	005a                	c.slli	zero,0x16
  8a:	0000                	unimp
  8c:	0000                	unimp
  8e:	0000                	unimp
  90:	1800                	addi	s0,sp,48
  92:	0000                	unimp
  94:	5000                	lw	s0,32(s0)
  96:	0000                	unimp
  98:	0100                	addi	s0,sp,128
  9a:	5d00                	lw	s0,56(a0)
  9c:	0050                	addi	a2,sp,4
  9e:	0000                	unimp
  a0:	0060                	addi	s0,sp,12
  a2:	0000                	unimp
  a4:	0004                	0x4
  a6:	de7d                	beqz	a2,a4 <register_fini-0xffd0>
  a8:	9f00                	0x9f00
  aa:	0070                	addi	a2,sp,12
  ac:	0000                	unimp
  ae:	0074                	addi	a3,sp,12
  b0:	0000                	unimp
  b2:	0001                	nop
  b4:	745d                	lui	s0,0xffff7
  b6:	0000                	unimp
  b8:	7c00                	flw	fs0,56(s0)
  ba:	0000                	unimp
  bc:	0400                	addi	s0,sp,512
  be:	7e00                	flw	fs0,56(a2)
  c0:	00f0                	addi	a2,sp,76
  c2:	849f 0000 a400      	0xa4000000849f
  c8:	0000                	unimp
  ca:	0100                	addi	s0,sp,128
  cc:	5d00                	lw	s0,56(a0)
  ce:	00a8                	addi	a0,sp,72
  d0:	0000                	unimp
  d2:	00b0                	addi	a2,sp,72
  d4:	0000                	unimp
  d6:	0001                	nop
  d8:	085d                	addi	a6,a6,23
  da:	0001                	nop
  dc:	1000                	addi	s0,sp,32
  de:	0001                	nop
  e0:	0100                	addi	s0,sp,128
  e2:	5d00                	lw	s0,56(a0)
	...
  ec:	0018                	0x18
  ee:	0000                	unimp
  f0:	0020                	addi	s0,sp,8
  f2:	0000                	unimp
  f4:	0001                	nop
  f6:	205c                	fld	fa5,128(s0)
  f8:	0000                	unimp
  fa:	5800                	lw	s0,48(s0)
  fc:	0000                	unimp
  fe:	0100                	addi	s0,sp,128
 100:	5f00                	lw	s0,56(a4)
 102:	0070                	addi	a2,sp,12
 104:	0000                	unimp
 106:	0078                	addi	a4,sp,12
 108:	0000                	unimp
 10a:	0001                	nop
 10c:	845f 0000 8c00      	0x8c000000845f
 112:	0000                	unimp
 114:	0100                	addi	s0,sp,128
 116:	5f00                	lw	s0,56(a4)
 118:	0090                	addi	a2,sp,64
 11a:	0000                	unimp
 11c:	0098                	addi	a4,sp,64
 11e:	0000                	unimp
 120:	0001                	nop
 122:	985f 0000 9c00      	0x9c000000985f
 128:	0000                	unimp
 12a:	0500                	addi	s0,sp,640
 12c:	7f00                	flw	fs0,56(a4)
 12e:	3d00                	fld	fs0,56(a0)
 130:	9f25                	0x9f25
 132:	009c                	addi	a5,sp,64
 134:	0000                	unimp
 136:	00a0                	addi	s0,sp,72
 138:	0000                	unimp
 13a:	0001                	nop
 13c:	a85f 0000 ac00      	0xac000000a85f
 142:	0000                	unimp
 144:	0100                	addi	s0,sp,128
 146:	5f00                	lw	s0,56(a4)
 148:	0108                	addi	a0,sp,128
 14a:	0000                	unimp
 14c:	010c                	addi	a1,sp,128
 14e:	0000                	unimp
 150:	0001                	nop
 152:	005f 0000 0000      	0x5f
 158:	0000                	unimp
 15a:	2000                	fld	fs0,0(s0)
 15c:	0000                	unimp
 15e:	e800                	fsw	fs0,16(s0)
 160:	0000                	unimp
 162:	0100                	addi	s0,sp,128
 164:	5a00                	lw	s0,48(a2)
 166:	00e8                	addi	a0,sp,76
 168:	0000                	unimp
 16a:	00ec                	addi	a1,sp,76
 16c:	0000                	unimp
 16e:	0002                	c.slli64	zero
 170:	9f30                	0x9f30
 172:	0108                	addi	a0,sp,128
 174:	0000                	unimp
 176:	012c                	addi	a1,sp,136
 178:	0000                	unimp
 17a:	0001                	nop
 17c:	005a                	c.slli	zero,0x16
 17e:	0000                	unimp
 180:	0000                	unimp
 182:	0000                	unimp
 184:	2800                	fld	fs0,16(s0)
 186:	0000                	unimp
 188:	4c00                	lw	s0,24(s0)
 18a:	0000                	unimp
 18c:	0100                	addi	s0,sp,128
 18e:	5e00                	lw	s0,56(a2)
 190:	004c                	addi	a1,sp,4
 192:	0000                	unimp
 194:	0050                	addi	a2,sp,4
 196:	0000                	unimp
 198:	0004                	0x4
 19a:	907d                	srli	s0,s0,0x3f
 19c:	9f7f                	0x9f7f
 19e:	0050                	addi	a2,sp,4
 1a0:	0000                	unimp
 1a2:	0060                	addi	s0,sp,12
 1a4:	0000                	unimp
 1a6:	6e7d0003          	lb	zero,1767(s10) # b6e7 <register_fini-0x498d>
 1aa:	649f 0000 7c00      	0x7c000000649f
 1b0:	0000                	unimp
 1b2:	0100                	addi	s0,sp,128
 1b4:	5e00                	lw	s0,56(a2)
 1b6:	0088                	addi	a0,sp,64
 1b8:	0000                	unimp
 1ba:	0090                	addi	a2,sp,64
 1bc:	0000                	unimp
 1be:	0002                	c.slli64	zero
 1c0:	9f30                	0x9f30
 1c2:	0090                	addi	a2,sp,64
 1c4:	0000                	unimp
 1c6:	00a8                	addi	a0,sp,72
 1c8:	0000                	unimp
 1ca:	0002                	c.slli64	zero
 1cc:	00a89f4f          	fnmadd.s	ft10,fa7,fa0,ft0,rtz
 1d0:	0000                	unimp
 1d2:	00b0                	addi	a2,sp,72
 1d4:	0000                	unimp
 1d6:	0001                	nop
 1d8:	c05e                	sw	s7,0(sp)
 1da:	0000                	unimp
 1dc:	e000                	fsw	fs0,0(s0)
 1de:	0000                	unimp
 1e0:	0100                	addi	s0,sp,128
 1e2:	5e00                	lw	s0,56(a2)
 1e4:	00e0                	addi	s0,sp,76
 1e6:	0000                	unimp
 1e8:	00ec                	addi	a1,sp,76
 1ea:	0000                	unimp
 1ec:	0002                	c.slli64	zero
 1ee:	01089f4f          	fnmadd.s	ft10,fa7,fa6,ft0,rtz
 1f2:	0000                	unimp
 1f4:	012c                	addi	a1,sp,136
 1f6:	0000                	unimp
 1f8:	0001                	nop
 1fa:	005e                	c.slli	zero,0x17
 1fc:	0000                	unimp
 1fe:	0000                	unimp
 200:	0000                	unimp
 202:	6400                	flw	fs0,8(s0)
 204:	0000                	unimp
 206:	7000                	flw	fs0,32(s0)
 208:	0000                	unimp
 20a:	0100                	addi	s0,sp,128
 20c:	5f00                	lw	s0,56(a4)
 20e:	0080                	addi	s0,sp,64
 210:	0000                	unimp
 212:	0084                	addi	s1,sp,64
 214:	0000                	unimp
 216:	0001                	nop
 218:	985f 0000 9c00      	0x9c000000985f
 21e:	0000                	unimp
 220:	0500                	addi	s0,sp,640
 222:	7f00                	flw	fs0,56(a4)
 224:	3d00                	fld	fs0,56(a0)
 226:	9f25                	0x9f25
 228:	009c                	addi	a5,sp,64
 22a:	0000                	unimp
 22c:	00a8                	addi	a0,sp,72
 22e:	0000                	unimp
 230:	0001                	nop
 232:	b05f 0000 bc00      	0xbc000000b05f
 238:	0000                	unimp
 23a:	0100                	addi	s0,sp,128
 23c:	5f00                	lw	s0,56(a4)
 23e:	00bc                	addi	a5,sp,72
 240:	0000                	unimp
 242:	00d4                	addi	a3,sp,68
 244:	0000                	unimp
 246:	007f0007          	0x7f0007
 24a:	1adfff0b          	0x1adfff0b
 24e:	d49f 0000 e800      	0xe8000000d49f
 254:	0000                	unimp
 256:	0100                	addi	s0,sp,128
 258:	5f00                	lw	s0,56(a4)
 25a:	00ec                	addi	a1,sp,76
 25c:	0000                	unimp
 25e:	00f8                	addi	a4,sp,76
 260:	0000                	unimp
 262:	0001                	nop
 264:	105f 0001 2400      	0x24000001105f
 26a:	0001                	nop
 26c:	0100                	addi	s0,sp,128
 26e:	5f00                	lw	s0,56(a4)
 270:	0124                	addi	s1,sp,136
 272:	0000                	unimp
 274:	0128                	addi	a0,sp,136
 276:	0000                	unimp
 278:	007f0007          	0x7f0007
 27c:	1adfff0b          	0x1adfff0b
 280:	009f 0000 0000      	0x9f
 286:	0000                	unimp
 288:	0000                	unimp
 28a:	0001                	nop
 28c:	0400                	addi	s0,sp,512
 28e:	0001                	nop
 290:	0100                	addi	s0,sp,128
 292:	5a00                	lw	s0,48(a2)
	...

Disassembly of section .debug_ranges:

00000000 <.debug_ranges>:
   0:	0000                	unimp
   2:	0000                	unimp
   4:	0008                	0x8
   6:	0000                	unimp
   8:	000c                	0xc
   a:	0000                	unimp
   c:	0010                	0x10
   e:	0000                	unimp
  10:	0014                	0x14
  12:	0000                	unimp
  14:	001c                	0x1c
	...
  1e:	0000                	unimp
  20:	0064                	addi	s1,sp,12
  22:	0000                	unimp
  24:	0070                	addi	a2,sp,12
  26:	0000                	unimp
  28:	00b0                	addi	a2,sp,72
  2a:	0000                	unimp
  2c:	00ec                	addi	a1,sp,76
  2e:	0000                	unimp
  30:	0110                	addi	a2,sp,128
  32:	0000                	unimp
  34:	012c                	addi	a1,sp,136
	...
