
a.out:     file format elf32-littleriscv


Disassembly of section .text:

00010074 <register_fini>:
   10074:	00000793          	addi	a5,zero,0
   10078:	00078863          	beq	a5,zero,10088 <register_fini+0x14>
   1007c:	00012537          	lui	a0,0x12
   10080:	b4c50513          	addi	a0,a0,-1204 # 11b4c <__libc_fini_array>
   10084:	1680206f          	jal	zero,121ec <atexit>
   10088:	00008067          	jalr	zero,0(ra)

0001008c <_start>:
   1008c:	00004197          	auipc	gp,0x4
   10090:	d3c18193          	addi	gp,gp,-708 # 13dc8 <__global_pointer$>
   10094:	04c18513          	addi	a0,gp,76 # 13e14 <__malloc_max_total_mem>
   10098:	0a418613          	addi	a2,gp,164 # 13e6c <__BSS_END__>
   1009c:	40a60633          	sub	a2,a2,a0
   100a0:	00000593          	addi	a1,zero,0
   100a4:	78c010ef          	jal	ra,11830 <memset>
   100a8:	00002517          	auipc	a0,0x2
   100ac:	14450513          	addi	a0,a0,324 # 121ec <atexit>
   100b0:	00050863          	beq	a0,zero,100c0 <_start+0x34>
   100b4:	00002517          	auipc	a0,0x2
   100b8:	a9850513          	addi	a0,a0,-1384 # 11b4c <__libc_fini_array>
   100bc:	130020ef          	jal	ra,121ec <atexit>
   100c0:	609000ef          	jal	ra,10ec8 <__libc_init_array>
   100c4:	00012503          	lw	a0,0(sp)
   100c8:	00410593          	addi	a1,sp,4
   100cc:	00000613          	addi	a2,zero,0
   100d0:	08e000ef          	jal	ra,1015e <main>
   100d4:	5c50006f          	jal	zero,10e98 <exit>

000100d8 <__do_global_dtors_aux>:
   100d8:	0601c703          	lbu	a4,96(gp) # 13e28 <completed.1>
   100dc:	04071263          	bne	a4,zero,10120 <__do_global_dtors_aux+0x48>
   100e0:	ff010113          	addi	sp,sp,-16
   100e4:	00812423          	sw	s0,8(sp)
   100e8:	00078413          	addi	s0,a5,0
   100ec:	00112623          	sw	ra,12(sp)
   100f0:	00000793          	addi	a5,zero,0
   100f4:	00078a63          	beq	a5,zero,10108 <__do_global_dtors_aux+0x30>
   100f8:	00013537          	lui	a0,0x13
   100fc:	5b450513          	addi	a0,a0,1460 # 135b4 <__FRAME_END__>
   10100:	00000097          	auipc	ra,0x0
   10104:	000000e7          	jalr	ra,0(zero) # 0 <register_fini-0x10074>
   10108:	00100793          	addi	a5,zero,1
   1010c:	00c12083          	lw	ra,12(sp)
   10110:	06f18023          	sb	a5,96(gp) # 13e28 <completed.1>
   10114:	00812403          	lw	s0,8(sp)
   10118:	01010113          	addi	sp,sp,16
   1011c:	00008067          	jalr	zero,0(ra) # 10100 <__do_global_dtors_aux+0x28>
   10120:	00008067          	jalr	zero,0(ra)

00010124 <frame_dummy>:
   10124:	00000793          	addi	a5,zero,0
   10128:	00078c63          	beq	a5,zero,10140 <frame_dummy+0x1c>
   1012c:	00013537          	lui	a0,0x13
   10130:	06418593          	addi	a1,gp,100 # 13e2c <object.0>
   10134:	5b450513          	addi	a0,a0,1460 # 135b4 <__FRAME_END__>
   10138:	00000317          	auipc	t1,0x0
   1013c:	00000067          	jalr	zero,0(zero) # 0 <register_fini-0x10074>
   10140:	00008067          	jalr	zero,0(ra)

00010144 <read_cycles>:
   10144:	1101                	c.addi	sp,-32
   10146:	ce22                	c.swsp	s0,28(sp)
   10148:	1000                	c.addi4spn	s0,sp,32

0001014a <LABEL>:
   1014a:	c00027f3          	csrrs	a5,cycle,zero
   1014e:	fef42623          	sw	a5,-20(s0)
   10152:	fec42783          	lw	a5,-20(s0)
   10156:	853e                	c.mv	a0,a5
   10158:	4472                	c.lwsp	s0,28(sp)
   1015a:	6105                	c.addi16sp	sp,32
   1015c:	8082                	c.jr	ra

0001015e <main>:
   1015e:	7175                	c.addi16sp	sp,-144
   10160:	c706                	c.swsp	ra,140(sp)
   10162:	c522                	c.swsp	s0,136(sp)
   10164:	0900                	c.addi4spn	s0,sp,144
   10166:	f6a42e23          	sw	a0,-132(s0)
   1016a:	f6b42c23          	sw	a1,-136(s0)
   1016e:	47a9                	c.li	a5,10
   10170:	fef42023          	sw	a5,-32(s0)
   10174:	40000713          	addi	a4,zero,1024
   10178:	4781                	c.li	a5,0
   1017a:	fee42423          	sw	a4,-24(s0)
   1017e:	fef42623          	sw	a5,-20(s0)
   10182:	fe042223          	sw	zero,-28(s0)
   10186:	a8c1                	c.j	10256 <main+0xf8>
   10188:	fe842783          	lw	a5,-24(s0)
   1018c:	4585                	c.li	a1,1
   1018e:	853e                	c.mv	a0,a5
   10190:	431000ef          	jal	ra,10dc0 <calloc>
   10194:	87aa                	c.mv	a5,a0
   10196:	fcf42e23          	sw	a5,-36(s0)
   1019a:	fe842783          	lw	a5,-24(s0)
   1019e:	85be                	c.mv	a1,a5
   101a0:	fdc42503          	lw	a0,-36(s0)
   101a4:	22e1                	c.jal	1036c <test_rdrandom>
   101a6:	242d                	c.jal	103d0 <test_rdinstret>
   101a8:	fca42823          	sw	a0,-48(s0)
   101ac:	fcb42a23          	sw	a1,-44(s0)
   101b0:	fe842783          	lw	a5,-24(s0)
   101b4:	f8040713          	addi	a4,s0,-128
   101b8:	863a                	c.mv	a2,a4
   101ba:	85be                	c.mv	a1,a5
   101bc:	fdc42503          	lw	a0,-36(s0)
   101c0:	297d                	c.jal	1067e <FIPS202_SHA3_512>
   101c2:	2439                	c.jal	103d0 <test_rdinstret>
   101c4:	fca42423          	sw	a0,-56(s0)
   101c8:	fcb42623          	sw	a1,-52(s0)
   101cc:	fc842603          	lw	a2,-56(s0)
   101d0:	fcc42683          	lw	a3,-52(s0)
   101d4:	fd042503          	lw	a0,-48(s0)
   101d8:	fd442583          	lw	a1,-44(s0)
   101dc:	40a60733          	sub	a4,a2,a0
   101e0:	883a                	c.mv	a6,a4
   101e2:	01063833          	sltu	a6,a2,a6
   101e6:	40b687b3          	sub	a5,a3,a1
   101ea:	410786b3          	sub	a3,a5,a6
   101ee:	87b6                	c.mv	a5,a3
   101f0:	fce42023          	sw	a4,-64(s0)
   101f4:	fcf42223          	sw	a5,-60(s0)
   101f8:	fe842783          	lw	a5,-24(s0)
   101fc:	85be                	c.mv	a1,a5
   101fe:	fdc42503          	lw	a0,-36(s0)
   10202:	2299                	c.jal	10348 <puthex_py>
   10204:	f8040793          	addi	a5,s0,-128
   10208:	04000593          	addi	a1,zero,64
   1020c:	853e                	c.mv	a0,a5
   1020e:	2a2d                	c.jal	10348 <puthex_py>
   10210:	fc042503          	lw	a0,-64(s0)
   10214:	fc442583          	lw	a1,-60(s0)
   10218:	2899                	c.jal	1026e <puthex64>
   1021a:	fe842603          	lw	a2,-24(s0)
   1021e:	fec42683          	lw	a3,-20(s0)
   10222:	20000513          	addi	a0,zero,512
   10226:	4581                	c.li	a1,0
   10228:	00a60733          	add	a4,a2,a0
   1022c:	883a                	c.mv	a6,a4
   1022e:	00c83833          	sltu	a6,a6,a2
   10232:	00b687b3          	add	a5,a3,a1
   10236:	00f806b3          	add	a3,a6,a5
   1023a:	87b6                	c.mv	a5,a3
   1023c:	fee42423          	sw	a4,-24(s0)
   10240:	fef42623          	sw	a5,-20(s0)
   10244:	fdc42503          	lw	a0,-36(s0)
   10248:	529000ef          	jal	ra,10f70 <free>
   1024c:	fe442783          	lw	a5,-28(s0)
   10250:	0785                	c.addi	a5,1
   10252:	fef42223          	sw	a5,-28(s0)
   10256:	fe442703          	lw	a4,-28(s0)
   1025a:	fe042783          	lw	a5,-32(s0)
   1025e:	f2f745e3          	blt	a4,a5,10188 <main+0x2a>
   10262:	4781                	c.li	a5,0
   10264:	853e                	c.mv	a0,a5
   10266:	40ba                	c.lwsp	ra,140(sp)
   10268:	442a                	c.lwsp	s0,136(sp)
   1026a:	6149                	c.addi16sp	sp,144
   1026c:	8082                	c.jr	ra

0001026e <puthex64>:
   1026e:	7179                	c.addi16sp	sp,-48
   10270:	d622                	c.swsp	s0,44(sp)
   10272:	1800                	c.addi4spn	s0,sp,48
   10274:	fca42c23          	sw	a0,-40(s0)
   10278:	fcb42e23          	sw	a1,-36(s0)
   1027c:	fe042623          	sw	zero,-20(s0)
   10280:	a8a1                	c.j	102d8 <puthex64+0x6a>
   10282:	463d                	c.li	a2,15
   10284:	fec42683          	lw	a3,-20(s0)
   10288:	40d606b3          	sub	a3,a2,a3
   1028c:	068a                	c.slli	a3,0x2
   1028e:	fe068613          	addi	a2,a3,-32
   10292:	00064863          	blt	a2,zero,102a2 <puthex64+0x34>
   10296:	fdc42683          	lw	a3,-36(s0)
   1029a:	00c6d733          	srl	a4,a3,a2
   1029e:	4781                	c.li	a5,0
   102a0:	a015                	c.j	102c4 <puthex64+0x56>
   102a2:	fdc42603          	lw	a2,-36(s0)
   102a6:	00161593          	slli	a1,a2,0x1
   102aa:	467d                	c.li	a2,31
   102ac:	8e15                	c.sub	a2,a3
   102ae:	00c59633          	sll	a2,a1,a2
   102b2:	fd842583          	lw	a1,-40(s0)
   102b6:	00d5d733          	srl	a4,a1,a3
   102ba:	8f51                	c.or	a4,a2
   102bc:	fdc42603          	lw	a2,-36(s0)
   102c0:	00d657b3          	srl	a5,a2,a3
   102c4:	0ff77693          	andi	a3,a4,255
   102c8:	8abd                	c.andi	a3,15
   102ca:	fed405a3          	sb	a3,-21(s0)
   102ce:	fec42683          	lw	a3,-20(s0)
   102d2:	0685                	c.addi	a3,1
   102d4:	fed42623          	sw	a3,-20(s0)
   102d8:	fec42603          	lw	a2,-20(s0)
   102dc:	46bd                	c.li	a3,15
   102de:	fac6d2e3          	bge	a3,a2,10282 <puthex64+0x14>
   102e2:	0001                	c.addi	zero,0
   102e4:	0001                	c.addi	zero,0
   102e6:	5432                	c.lwsp	s0,44(sp)
   102e8:	6145                	c.addi16sp	sp,48
   102ea:	8082                	c.jr	ra

000102ec <puthex>:
   102ec:	7179                	c.addi16sp	sp,-48
   102ee:	d622                	c.swsp	s0,44(sp)
   102f0:	1800                	c.addi4spn	s0,sp,48
   102f2:	fca42e23          	sw	a0,-36(s0)
   102f6:	fcb42c23          	sw	a1,-40(s0)
   102fa:	fe042623          	sw	zero,-20(s0)
   102fe:	a815                	c.j	10332 <puthex+0x46>
   10300:	fdc42703          	lw	a4,-36(s0)
   10304:	fec42783          	lw	a5,-20(s0)
   10308:	97ba                	c.add	a5,a4
   1030a:	0007c783          	lbu	a5,0(a5)
   1030e:	8391                	c.srli	a5,0x4
   10310:	fef405a3          	sb	a5,-21(s0)
   10314:	fdc42703          	lw	a4,-36(s0)
   10318:	fec42783          	lw	a5,-20(s0)
   1031c:	97ba                	c.add	a5,a4
   1031e:	0007c783          	lbu	a5,0(a5)
   10322:	8bbd                	c.andi	a5,15
   10324:	fef40523          	sb	a5,-22(s0)
   10328:	fec42783          	lw	a5,-20(s0)
   1032c:	0785                	c.addi	a5,1
   1032e:	fef42623          	sw	a5,-20(s0)
   10332:	fec42703          	lw	a4,-20(s0)
   10336:	fd842783          	lw	a5,-40(s0)
   1033a:	fcf763e3          	bltu	a4,a5,10300 <puthex+0x14>
   1033e:	0001                	c.addi	zero,0
   10340:	0001                	c.addi	zero,0
   10342:	5432                	c.lwsp	s0,44(sp)
   10344:	6145                	c.addi16sp	sp,48
   10346:	8082                	c.jr	ra

00010348 <puthex_py>:
   10348:	1101                	c.addi	sp,-32
   1034a:	ce06                	c.swsp	ra,28(sp)
   1034c:	cc22                	c.swsp	s0,24(sp)
   1034e:	1000                	c.addi4spn	s0,sp,32
   10350:	fea42623          	sw	a0,-20(s0)
   10354:	feb42423          	sw	a1,-24(s0)
   10358:	fe842583          	lw	a1,-24(s0)
   1035c:	fec42503          	lw	a0,-20(s0)
   10360:	3771                	c.jal	102ec <puthex>
   10362:	0001                	c.addi	zero,0
   10364:	40f2                	c.lwsp	ra,28(sp)
   10366:	4462                	c.lwsp	s0,24(sp)
   10368:	6105                	c.addi16sp	sp,32
   1036a:	8082                	c.jr	ra

0001036c <test_rdrandom>:
   1036c:	7179                	c.addi16sp	sp,-48
   1036e:	d606                	c.swsp	ra,44(sp)
   10370:	d422                	c.swsp	s0,40(sp)
   10372:	1800                	c.addi4spn	s0,sp,48
   10374:	fca42e23          	sw	a0,-36(s0)
   10378:	fcb42c23          	sw	a1,-40(s0)
   1037c:	4501                	c.li	a0,0
   1037e:	652010ef          	jal	ra,119d0 <time>
   10382:	872a                	c.mv	a4,a0
   10384:	87ae                	c.mv	a5,a1
   10386:	87ba                	c.mv	a5,a4
   10388:	853e                	c.mv	a0,a5
   1038a:	58a010ef          	jal	ra,11914 <srand>
   1038e:	fe042623          	sw	zero,-20(s0)
   10392:	a015                	c.j	103b6 <test_rdrandom+0x4a>
   10394:	590010ef          	jal	ra,11924 <rand>
   10398:	86aa                	c.mv	a3,a0
   1039a:	fdc42703          	lw	a4,-36(s0)
   1039e:	fec42783          	lw	a5,-20(s0)
   103a2:	97ba                	c.add	a5,a4
   103a4:	0ff6f713          	andi	a4,a3,255
   103a8:	00e78023          	sb	a4,0(a5)
   103ac:	fec42783          	lw	a5,-20(s0)
   103b0:	0785                	c.addi	a5,1
   103b2:	fef42623          	sw	a5,-20(s0)
   103b6:	fec42703          	lw	a4,-20(s0)
   103ba:	fd842783          	lw	a5,-40(s0)
   103be:	fcf76be3          	bltu	a4,a5,10394 <test_rdrandom+0x28>
   103c2:	fd842783          	lw	a5,-40(s0)
   103c6:	853e                	c.mv	a0,a5
   103c8:	50b2                	c.lwsp	ra,44(sp)
   103ca:	5422                	c.lwsp	s0,40(sp)
   103cc:	6145                	c.addi16sp	sp,48
   103ce:	8082                	c.jr	ra

000103d0 <test_rdinstret>:
   103d0:	7179                	c.addi16sp	sp,-48
   103d2:	d622                	c.swsp	s0,44(sp)
   103d4:	1800                	c.addi4spn	s0,sp,48
   103d6:	4801                	c.li	a6,0
   103d8:	4881                	c.li	a7,0
   103da:	ff042423          	sw	a6,-24(s0)
   103de:	ff142623          	sw	a7,-20(s0)
   103e2:	c8202373          	csrrs	t1,instreth,zero
   103e6:	c02028f3          	csrrs	a7,instret,zero
   103ea:	c8202873          	csrrs	a6,instreth,zero
   103ee:	fe642223          	sw	t1,-28(s0)
   103f2:	ff142023          	sw	a7,-32(s0)
   103f6:	fd042e23          	sw	a6,-36(s0)
   103fa:	fe442883          	lw	a7,-28(s0)
   103fe:	fdc42803          	lw	a6,-36(s0)
   10402:	ff0890e3          	bne	a7,a6,103e2 <test_rdinstret+0x12>
   10406:	fe442803          	lw	a6,-28(s0)
   1040a:	8542                	c.mv	a0,a6
   1040c:	4581                	c.li	a1,0
   1040e:	00051793          	slli	a5,a0,0x0
   10412:	4701                	c.li	a4,0
   10414:	fe042583          	lw	a1,-32(s0)
   10418:	862e                	c.mv	a2,a1
   1041a:	4681                	c.li	a3,0
   1041c:	00c765b3          	or	a1,a4,a2
   10420:	feb42423          	sw	a1,-24(s0)
   10424:	8fd5                	c.or	a5,a3
   10426:	fef42623          	sw	a5,-20(s0)
   1042a:	fe842703          	lw	a4,-24(s0)
   1042e:	fec42783          	lw	a5,-20(s0)
   10432:	853a                	c.mv	a0,a4
   10434:	85be                	c.mv	a1,a5
   10436:	5432                	c.lwsp	s0,44(sp)
   10438:	6145                	c.addi16sp	sp,48
   1043a:	8082                	c.jr	ra

0001043c <test_rdcycle>:
   1043c:	7179                	c.addi16sp	sp,-48
   1043e:	d622                	c.swsp	s0,44(sp)
   10440:	1800                	c.addi4spn	s0,sp,48
   10442:	4801                	c.li	a6,0
   10444:	4881                	c.li	a7,0
   10446:	ff042423          	sw	a6,-24(s0)
   1044a:	ff142623          	sw	a7,-20(s0)
   1044e:	c8002373          	csrrs	t1,cycleh,zero
   10452:	c00028f3          	csrrs	a7,cycle,zero
   10456:	c8002873          	csrrs	a6,cycleh,zero
   1045a:	fe642223          	sw	t1,-28(s0)
   1045e:	ff142023          	sw	a7,-32(s0)
   10462:	fd042e23          	sw	a6,-36(s0)
   10466:	fe442883          	lw	a7,-28(s0)
   1046a:	fdc42803          	lw	a6,-36(s0)
   1046e:	ff0890e3          	bne	a7,a6,1044e <test_rdcycle+0x12>
   10472:	fe442803          	lw	a6,-28(s0)
   10476:	8542                	c.mv	a0,a6
   10478:	4581                	c.li	a1,0
   1047a:	00051793          	slli	a5,a0,0x0
   1047e:	4701                	c.li	a4,0
   10480:	fe042583          	lw	a1,-32(s0)
   10484:	862e                	c.mv	a2,a1
   10486:	4681                	c.li	a3,0
   10488:	00c765b3          	or	a1,a4,a2
   1048c:	feb42423          	sw	a1,-24(s0)
   10490:	8fd5                	c.or	a5,a3
   10492:	fef42623          	sw	a5,-20(s0)
   10496:	fe842703          	lw	a4,-24(s0)
   1049a:	fec42783          	lw	a5,-20(s0)
   1049e:	853a                	c.mv	a0,a4
   104a0:	85be                	c.mv	a1,a5
   104a2:	5432                	c.lwsp	s0,44(sp)
   104a4:	6145                	c.addi16sp	sp,48
   104a6:	8082                	c.jr	ra

000104a8 <test_rdtime>:
   104a8:	7179                	c.addi16sp	sp,-48
   104aa:	d622                	c.swsp	s0,44(sp)
   104ac:	1800                	c.addi4spn	s0,sp,48
   104ae:	4801                	c.li	a6,0
   104b0:	4881                	c.li	a7,0
   104b2:	ff042423          	sw	a6,-24(s0)
   104b6:	ff142623          	sw	a7,-20(s0)
   104ba:	c8102373          	csrrs	t1,timeh,zero
   104be:	c01028f3          	csrrs	a7,time,zero
   104c2:	c8102873          	csrrs	a6,timeh,zero
   104c6:	fe642223          	sw	t1,-28(s0)
   104ca:	ff142023          	sw	a7,-32(s0)
   104ce:	fd042e23          	sw	a6,-36(s0)
   104d2:	fe442883          	lw	a7,-28(s0)
   104d6:	fdc42803          	lw	a6,-36(s0)
   104da:	ff0890e3          	bne	a7,a6,104ba <test_rdtime+0x12>
   104de:	fe442803          	lw	a6,-28(s0)
   104e2:	8542                	c.mv	a0,a6
   104e4:	4581                	c.li	a1,0
   104e6:	00051793          	slli	a5,a0,0x0
   104ea:	4701                	c.li	a4,0
   104ec:	fe042583          	lw	a1,-32(s0)
   104f0:	862e                	c.mv	a2,a1
   104f2:	4681                	c.li	a3,0
   104f4:	00c765b3          	or	a1,a4,a2
   104f8:	feb42423          	sw	a1,-24(s0)
   104fc:	8fd5                	c.or	a5,a3
   104fe:	fef42623          	sw	a5,-20(s0)
   10502:	fe842703          	lw	a4,-24(s0)
   10506:	fec42783          	lw	a5,-20(s0)
   1050a:	853a                	c.mv	a0,a4
   1050c:	85be                	c.mv	a1,a5
   1050e:	5432                	c.lwsp	s0,44(sp)
   10510:	6145                	c.addi16sp	sp,48
   10512:	8082                	c.jr	ra

00010514 <FIPS202_SHAKE128>:
   10514:	7179                	c.addi16sp	sp,-48
   10516:	d606                	c.swsp	ra,44(sp)
   10518:	d422                	c.swsp	s0,40(sp)
   1051a:	1800                	c.addi4spn	s0,sp,48
   1051c:	fea42623          	sw	a0,-20(s0)
   10520:	feb42423          	sw	a1,-24(s0)
   10524:	fec42223          	sw	a2,-28(s0)
   10528:	fed42023          	sw	a3,-32(s0)
   1052c:	fe842683          	lw	a3,-24(s0)
   10530:	8336                	c.mv	t1,a3
   10532:	4381                	c.li	t2,0
   10534:	fe042683          	lw	a3,-32(s0)
   10538:	8736                	c.mv	a4,a3
   1053a:	86fd                	c.srai	a3,0x1f
   1053c:	87b6                	c.mv	a5,a3
   1053e:	c03e                	c.swsp	a5,0(sp)
   10540:	88ba                	c.mv	a7,a4
   10542:	fe442803          	lw	a6,-28(s0)
   10546:	47fd                	c.li	a5,31
   10548:	869a                	c.mv	a3,t1
   1054a:	871e                	c.mv	a4,t2
   1054c:	fec42603          	lw	a2,-20(s0)
   10550:	10000593          	addi	a1,zero,256
   10554:	54000513          	addi	a0,zero,1344
   10558:	2be1                	c.jal	10b30 <Keccak>
   1055a:	0001                	c.addi	zero,0
   1055c:	50b2                	c.lwsp	ra,44(sp)
   1055e:	5422                	c.lwsp	s0,40(sp)
   10560:	6145                	c.addi16sp	sp,48
   10562:	8082                	c.jr	ra

00010564 <FIPS202_SHAKE256>:
   10564:	7179                	c.addi16sp	sp,-48
   10566:	d606                	c.swsp	ra,44(sp)
   10568:	d422                	c.swsp	s0,40(sp)
   1056a:	1800                	c.addi4spn	s0,sp,48
   1056c:	fea42623          	sw	a0,-20(s0)
   10570:	feb42423          	sw	a1,-24(s0)
   10574:	fec42223          	sw	a2,-28(s0)
   10578:	fed42023          	sw	a3,-32(s0)
   1057c:	fe842683          	lw	a3,-24(s0)
   10580:	8336                	c.mv	t1,a3
   10582:	4381                	c.li	t2,0
   10584:	fe042683          	lw	a3,-32(s0)
   10588:	8736                	c.mv	a4,a3
   1058a:	86fd                	c.srai	a3,0x1f
   1058c:	87b6                	c.mv	a5,a3
   1058e:	c03e                	c.swsp	a5,0(sp)
   10590:	88ba                	c.mv	a7,a4
   10592:	fe442803          	lw	a6,-28(s0)
   10596:	47fd                	c.li	a5,31
   10598:	869a                	c.mv	a3,t1
   1059a:	871e                	c.mv	a4,t2
   1059c:	fec42603          	lw	a2,-20(s0)
   105a0:	20000593          	addi	a1,zero,512
   105a4:	44000513          	addi	a0,zero,1088
   105a8:	2361                	c.jal	10b30 <Keccak>
   105aa:	0001                	c.addi	zero,0
   105ac:	50b2                	c.lwsp	ra,44(sp)
   105ae:	5422                	c.lwsp	s0,40(sp)
   105b0:	6145                	c.addi16sp	sp,48
   105b2:	8082                	c.jr	ra

000105b4 <FIPS202_SHA3_224>:
   105b4:	7179                	c.addi16sp	sp,-48
   105b6:	d606                	c.swsp	ra,44(sp)
   105b8:	d422                	c.swsp	s0,40(sp)
   105ba:	1800                	c.addi4spn	s0,sp,48
   105bc:	fea42623          	sw	a0,-20(s0)
   105c0:	feb42423          	sw	a1,-24(s0)
   105c4:	fec42223          	sw	a2,-28(s0)
   105c8:	fe842783          	lw	a5,-24(s0)
   105cc:	833e                	c.mv	t1,a5
   105ce:	4381                	c.li	t2,0
   105d0:	c002                	c.swsp	zero,0(sp)
   105d2:	48f1                	c.li	a7,28
   105d4:	fe442803          	lw	a6,-28(s0)
   105d8:	4799                	c.li	a5,6
   105da:	869a                	c.mv	a3,t1
   105dc:	871e                	c.mv	a4,t2
   105de:	fec42603          	lw	a2,-20(s0)
   105e2:	1c000593          	addi	a1,zero,448
   105e6:	48000513          	addi	a0,zero,1152
   105ea:	2399                	c.jal	10b30 <Keccak>
   105ec:	0001                	c.addi	zero,0
   105ee:	50b2                	c.lwsp	ra,44(sp)
   105f0:	5422                	c.lwsp	s0,40(sp)
   105f2:	6145                	c.addi16sp	sp,48
   105f4:	8082                	c.jr	ra

000105f6 <FIPS202_SHA3_256>:
   105f6:	7179                	c.addi16sp	sp,-48
   105f8:	d606                	c.swsp	ra,44(sp)
   105fa:	d422                	c.swsp	s0,40(sp)
   105fc:	1800                	c.addi4spn	s0,sp,48
   105fe:	fea42623          	sw	a0,-20(s0)
   10602:	feb42423          	sw	a1,-24(s0)
   10606:	fec42223          	sw	a2,-28(s0)
   1060a:	fe842783          	lw	a5,-24(s0)
   1060e:	833e                	c.mv	t1,a5
   10610:	4381                	c.li	t2,0
   10612:	c002                	c.swsp	zero,0(sp)
   10614:	02000893          	addi	a7,zero,32
   10618:	fe442803          	lw	a6,-28(s0)
   1061c:	4799                	c.li	a5,6
   1061e:	869a                	c.mv	a3,t1
   10620:	871e                	c.mv	a4,t2
   10622:	fec42603          	lw	a2,-20(s0)
   10626:	20000593          	addi	a1,zero,512
   1062a:	44000513          	addi	a0,zero,1088
   1062e:	2309                	c.jal	10b30 <Keccak>
   10630:	0001                	c.addi	zero,0
   10632:	50b2                	c.lwsp	ra,44(sp)
   10634:	5422                	c.lwsp	s0,40(sp)
   10636:	6145                	c.addi16sp	sp,48
   10638:	8082                	c.jr	ra

0001063a <FIPS202_SHA3_384>:
   1063a:	7179                	c.addi16sp	sp,-48
   1063c:	d606                	c.swsp	ra,44(sp)
   1063e:	d422                	c.swsp	s0,40(sp)
   10640:	1800                	c.addi4spn	s0,sp,48
   10642:	fea42623          	sw	a0,-20(s0)
   10646:	feb42423          	sw	a1,-24(s0)
   1064a:	fec42223          	sw	a2,-28(s0)
   1064e:	fe842783          	lw	a5,-24(s0)
   10652:	833e                	c.mv	t1,a5
   10654:	4381                	c.li	t2,0
   10656:	c002                	c.swsp	zero,0(sp)
   10658:	03000893          	addi	a7,zero,48
   1065c:	fe442803          	lw	a6,-28(s0)
   10660:	4799                	c.li	a5,6
   10662:	869a                	c.mv	a3,t1
   10664:	871e                	c.mv	a4,t2
   10666:	fec42603          	lw	a2,-20(s0)
   1066a:	30000593          	addi	a1,zero,768
   1066e:	34000513          	addi	a0,zero,832
   10672:	297d                	c.jal	10b30 <Keccak>
   10674:	0001                	c.addi	zero,0
   10676:	50b2                	c.lwsp	ra,44(sp)
   10678:	5422                	c.lwsp	s0,40(sp)
   1067a:	6145                	c.addi16sp	sp,48
   1067c:	8082                	c.jr	ra

0001067e <FIPS202_SHA3_512>:
   1067e:	7179                	c.addi16sp	sp,-48
   10680:	d606                	c.swsp	ra,44(sp)
   10682:	d422                	c.swsp	s0,40(sp)
   10684:	1800                	c.addi4spn	s0,sp,48
   10686:	fea42623          	sw	a0,-20(s0)
   1068a:	feb42423          	sw	a1,-24(s0)
   1068e:	fec42223          	sw	a2,-28(s0)
   10692:	fe842783          	lw	a5,-24(s0)
   10696:	833e                	c.mv	t1,a5
   10698:	4381                	c.li	t2,0
   1069a:	c002                	c.swsp	zero,0(sp)
   1069c:	04000893          	addi	a7,zero,64
   106a0:	fe442803          	lw	a6,-28(s0)
   106a4:	4799                	c.li	a5,6
   106a6:	869a                	c.mv	a3,t1
   106a8:	871e                	c.mv	a4,t2
   106aa:	fec42603          	lw	a2,-20(s0)
   106ae:	40000593          	addi	a1,zero,1024
   106b2:	24000513          	addi	a0,zero,576
   106b6:	29ad                	c.jal	10b30 <Keccak>
   106b8:	0001                	c.addi	zero,0
   106ba:	50b2                	c.lwsp	ra,44(sp)
   106bc:	5422                	c.lwsp	s0,40(sp)
   106be:	6145                	c.addi16sp	sp,48
   106c0:	8082                	c.jr	ra

000106c2 <KeccakF1600_StatePermute>:
   106c2:	7149                	c.addi16sp	sp,-368
   106c4:	16812623          	sw	s0,364(sp)
   106c8:	17212423          	sw	s2,360(sp)
   106cc:	17312223          	sw	s3,356(sp)
   106d0:	17412023          	sw	s4,352(sp)
   106d4:	15512e23          	sw	s5,348(sp)
   106d8:	15612c23          	sw	s6,344(sp)
   106dc:	15712a23          	sw	s7,340(sp)
   106e0:	15812823          	sw	s8,336(sp)
   106e4:	15912623          	sw	s9,332(sp)
   106e8:	15a12423          	sw	s10,328(sp)
   106ec:	15b12223          	sw	s11,324(sp)
   106f0:	1a80                	c.addi4spn	s0,sp,368
   106f2:	eaa42e23          	sw	a0,-324(s0)
   106f6:	fc042623          	sw	zero,-52(s0)
   106fa:	aee5                	c.j	10af2 <KeccakF1600_StatePermute+0x430>
   106fc:	fc042423          	sw	zero,-56(s0)
   10700:	a8c1                	c.j	107d0 <KeccakF1600_StatePermute+0x10e>
   10702:	fc842703          	lw	a4,-56(s0)
   10706:	4795                	c.li	a5,5
   10708:	02f767b3          	rem	a5,a4,a5
   1070c:	00379713          	slli	a4,a5,0x3
   10710:	ebc42783          	lw	a5,-324(s0)
   10714:	97ba                	c.add	a5,a4
   10716:	4390                	c.lw	a2,0(a5)
   10718:	43d4                	c.lw	a3,4(a5)
   1071a:	fc842703          	lw	a4,-56(s0)
   1071e:	4795                	c.li	a5,5
   10720:	02f767b3          	rem	a5,a4,a5
   10724:	0795                	c.addi	a5,5
   10726:	00379713          	slli	a4,a5,0x3
   1072a:	ebc42783          	lw	a5,-324(s0)
   1072e:	97ba                	c.add	a5,a4
   10730:	4398                	c.lw	a4,0(a5)
   10732:	43dc                	c.lw	a5,4(a5)
   10734:	00e64a33          	xor	s4,a2,a4
   10738:	00f6cab3          	xor	s5,a3,a5
   1073c:	fc842703          	lw	a4,-56(s0)
   10740:	4795                	c.li	a5,5
   10742:	02f767b3          	rem	a5,a4,a5
   10746:	07a9                	c.addi	a5,10
   10748:	00379713          	slli	a4,a5,0x3
   1074c:	ebc42783          	lw	a5,-324(s0)
   10750:	97ba                	c.add	a5,a4
   10752:	4398                	c.lw	a4,0(a5)
   10754:	43dc                	c.lw	a5,4(a5)
   10756:	00ea4f33          	xor	t5,s4,a4
   1075a:	00facfb3          	xor	t6,s5,a5
   1075e:	fc842703          	lw	a4,-56(s0)
   10762:	4795                	c.li	a5,5
   10764:	02f767b3          	rem	a5,a4,a5
   10768:	07bd                	c.addi	a5,15
   1076a:	00379713          	slli	a4,a5,0x3
   1076e:	ebc42783          	lw	a5,-324(s0)
   10772:	97ba                	c.add	a5,a4
   10774:	4398                	c.lw	a4,0(a5)
   10776:	43dc                	c.lw	a5,4(a5)
   10778:	00ef4933          	xor	s2,t5,a4
   1077c:	00ffc9b3          	xor	s3,t6,a5
   10780:	fc842703          	lw	a4,-56(s0)
   10784:	4795                	c.li	a5,5
   10786:	02f767b3          	rem	a5,a4,a5
   1078a:	07d1                	c.addi	a5,20
   1078c:	00379713          	slli	a4,a5,0x3
   10790:	ebc42783          	lw	a5,-324(s0)
   10794:	97ba                	c.add	a5,a4
   10796:	4398                	c.lw	a4,0(a5)
   10798:	43dc                	c.lw	a5,4(a5)
   1079a:	00e946b3          	xor	a3,s2,a4
   1079e:	ead42823          	sw	a3,-336(s0)
   107a2:	00f9c7b3          	xor	a5,s3,a5
   107a6:	eaf42a23          	sw	a5,-332(s0)
   107aa:	fc842783          	lw	a5,-56(s0)
   107ae:	078e                	c.slli	a5,0x3
   107b0:	fd040713          	addi	a4,s0,-48
   107b4:	97ba                	c.add	a5,a4
   107b6:	eb042683          	lw	a3,-336(s0)
   107ba:	eb442703          	lw	a4,-332(s0)
   107be:	eed7ac23          	sw	a3,-264(a5)
   107c2:	eee7ae23          	sw	a4,-260(a5)
   107c6:	fc842783          	lw	a5,-56(s0)
   107ca:	0785                	c.addi	a5,1
   107cc:	fcf42423          	sw	a5,-56(s0)
   107d0:	fc842703          	lw	a4,-56(s0)
   107d4:	4791                	c.li	a5,4
   107d6:	f2e7d6e3          	bge	a5,a4,10702 <KeccakF1600_StatePermute+0x40>
   107da:	fc042423          	sw	zero,-56(s0)
   107de:	aa5d                	c.j	10994 <KeccakF1600_StatePermute+0x2d2>
   107e0:	fc842783          	lw	a5,-56(s0)
   107e4:	00178713          	addi	a4,a5,1
   107e8:	4795                	c.li	a5,5
   107ea:	02f767b3          	rem	a5,a4,a5
   107ee:	078e                	c.slli	a5,0x3
   107f0:	fd040713          	addi	a4,s0,-48
   107f4:	97ba                	c.add	a5,a4
   107f6:	ef87a703          	lw	a4,-264(a5)
   107fa:	efc7a783          	lw	a5,-260(a5)
   107fe:	01f75613          	srli	a2,a4,0x1f
   10802:	00179693          	slli	a3,a5,0x1
   10806:	00d66bb3          	or	s7,a2,a3
   1080a:	01f7d693          	srli	a3,a5,0x1f
   1080e:	00171793          	slli	a5,a4,0x1
   10812:	00f6eb33          	or	s6,a3,a5
   10816:	fc842783          	lw	a5,-56(s0)
   1081a:	00478713          	addi	a4,a5,4
   1081e:	4795                	c.li	a5,5
   10820:	02f767b3          	rem	a5,a4,a5
   10824:	078e                	c.slli	a5,0x3
   10826:	fd040713          	addi	a4,s0,-48
   1082a:	97ba                	c.add	a5,a4
   1082c:	ef87a703          	lw	a4,-264(a5)
   10830:	efc7a783          	lw	a5,-260(a5)
   10834:	00eb46b3          	xor	a3,s6,a4
   10838:	fad42c23          	sw	a3,-72(s0)
   1083c:	00fbc7b3          	xor	a5,s7,a5
   10840:	faf42e23          	sw	a5,-68(s0)
   10844:	fc042223          	sw	zero,-60(s0)
   10848:	aa25                	c.j	10980 <KeccakF1600_StatePermute+0x2be>
   1084a:	fc842703          	lw	a4,-56(s0)
   1084e:	4795                	c.li	a5,5
   10850:	02f766b3          	rem	a3,a4,a5
   10854:	fc442703          	lw	a4,-60(s0)
   10858:	4795                	c.li	a5,5
   1085a:	02f76733          	rem	a4,a4,a5
   1085e:	87ba                	c.mv	a5,a4
   10860:	078a                	c.slli	a5,0x2
   10862:	97ba                	c.add	a5,a4
   10864:	97b6                	c.add	a5,a3
   10866:	00379713          	slli	a4,a5,0x3
   1086a:	ebc42783          	lw	a5,-324(s0)
   1086e:	97ba                	c.add	a5,a4
   10870:	4398                	c.lw	a4,0(a5)
   10872:	43dc                	c.lw	a5,4(a5)
   10874:	fb842683          	lw	a3,-72(s0)
   10878:	00e6c833          	xor	a6,a3,a4
   1087c:	fbc42683          	lw	a3,-68(s0)
   10880:	00f6c8b3          	xor	a7,a3,a5
   10884:	fc842703          	lw	a4,-56(s0)
   10888:	4795                	c.li	a5,5
   1088a:	02f766b3          	rem	a3,a4,a5
   1088e:	fc442703          	lw	a4,-60(s0)
   10892:	4795                	c.li	a5,5
   10894:	02f76733          	rem	a4,a4,a5
   10898:	87ba                	c.mv	a5,a4
   1089a:	078a                	c.slli	a5,0x2
   1089c:	97ba                	c.add	a5,a4
   1089e:	96be                	c.add	a3,a5
   108a0:	67c9                	c.lui	a5,0x12
   108a2:	55078713          	addi	a4,a5,1360 # 12550 <KeccakP1600RhoOffsets>
   108a6:	00269793          	slli	a5,a3,0x2
   108aa:	97ba                	c.add	a5,a4
   108ac:	4390                	c.lw	a2,0(a5)
   108ae:	fc442703          	lw	a4,-60(s0)
   108b2:	4795                	c.li	a5,5
   108b4:	02f765b3          	rem	a1,a4,a5
   108b8:	fc842783          	lw	a5,-56(s0)
   108bc:	00179693          	slli	a3,a5,0x1
   108c0:	fc442703          	lw	a4,-60(s0)
   108c4:	87ba                	c.mv	a5,a4
   108c6:	0786                	c.slli	a5,0x1
   108c8:	97ba                	c.add	a5,a4
   108ca:	00f68733          	add	a4,a3,a5
   108ce:	4795                	c.li	a5,5
   108d0:	02f76733          	rem	a4,a4,a5
   108d4:	87ba                	c.mv	a5,a4
   108d6:	078a                	c.slli	a5,0x2
   108d8:	97ba                	c.add	a5,a4
   108da:	95be                	c.add	a1,a5
   108dc:	fe060793          	addi	a5,a2,-32
   108e0:	0007c663          	blt	a5,zero,108ec <KeccakF1600_StatePermute+0x22a>
   108e4:	00f81eb3          	sll	t4,a6,a5
   108e8:	4e01                	c.li	t3,0
   108ea:	a829                	c.j	10904 <KeccakF1600_StatePermute+0x242>
   108ec:	00185713          	srli	a4,a6,0x1
   108f0:	47fd                	c.li	a5,31
   108f2:	8f91                	c.sub	a5,a2
   108f4:	00f757b3          	srl	a5,a4,a5
   108f8:	00c89eb3          	sll	t4,a7,a2
   108fc:	01d7eeb3          	or	t4,a5,t4
   10900:	00c81e33          	sll	t3,a6,a2
   10904:	40c007b3          	sub	a5,zero,a2
   10908:	03f7f793          	andi	a5,a5,63
   1090c:	1781                	c.addi	a5,-32
   1090e:	0007c663          	blt	a5,zero,1091a <KeccakF1600_StatePermute+0x258>
   10912:	00f8d333          	srl	t1,a7,a5
   10916:	4381                	c.li	t2,0
   10918:	a815                	c.j	1094c <KeccakF1600_StatePermute+0x28a>
   1091a:	00189693          	slli	a3,a7,0x1
   1091e:	477d                	c.li	a4,31
   10920:	40c007b3          	sub	a5,zero,a2
   10924:	03f7f793          	andi	a5,a5,63
   10928:	40f707b3          	sub	a5,a4,a5
   1092c:	00f69733          	sll	a4,a3,a5
   10930:	40c007b3          	sub	a5,zero,a2
   10934:	03f7f793          	andi	a5,a5,63
   10938:	00f85333          	srl	t1,a6,a5
   1093c:	00676333          	or	t1,a4,t1
   10940:	40c007b3          	sub	a5,zero,a2
   10944:	03f7f793          	andi	a5,a5,63
   10948:	00f8d3b3          	srl	t2,a7,a5
   1094c:	01c367b3          	or	a5,t1,t3
   10950:	e8f42c23          	sw	a5,-360(s0)
   10954:	01d3e7b3          	or	a5,t2,t4
   10958:	e8f42e23          	sw	a5,-356(s0)
   1095c:	e9842303          	lw	t1,-360(s0)
   10960:	e9c42383          	lw	t2,-356(s0)
   10964:	00359793          	slli	a5,a1,0x3
   10968:	fd040713          	addi	a4,s0,-48
   1096c:	97ba                	c.add	a5,a4
   1096e:	f267a023          	sw	t1,-224(a5)
   10972:	f277a223          	sw	t2,-220(a5)
   10976:	fc442783          	lw	a5,-60(s0)
   1097a:	0785                	c.addi	a5,1
   1097c:	fcf42223          	sw	a5,-60(s0)
   10980:	fc442703          	lw	a4,-60(s0)
   10984:	4791                	c.li	a5,4
   10986:	ece7d2e3          	bge	a5,a4,1084a <KeccakF1600_StatePermute+0x188>
   1098a:	fc842783          	lw	a5,-56(s0)
   1098e:	0785                	c.addi	a5,1
   10990:	fcf42423          	sw	a5,-56(s0)
   10994:	fc842703          	lw	a4,-56(s0)
   10998:	4791                	c.li	a5,4
   1099a:	e4e7d3e3          	bge	a5,a4,107e0 <KeccakF1600_StatePermute+0x11e>
   1099e:	fc042223          	sw	zero,-60(s0)
   109a2:	a211                	c.j	10aa6 <KeccakF1600_StatePermute+0x3e4>
   109a4:	fc042423          	sw	zero,-56(s0)
   109a8:	a0ed                	c.j	10a92 <KeccakF1600_StatePermute+0x3d0>
   109aa:	fc842703          	lw	a4,-56(s0)
   109ae:	4795                	c.li	a5,5
   109b0:	02f766b3          	rem	a3,a4,a5
   109b4:	fc442703          	lw	a4,-60(s0)
   109b8:	4795                	c.li	a5,5
   109ba:	02f76733          	rem	a4,a4,a5
   109be:	87ba                	c.mv	a5,a4
   109c0:	078a                	c.slli	a5,0x2
   109c2:	97ba                	c.add	a5,a4
   109c4:	97b6                	c.add	a5,a3
   109c6:	078e                	c.slli	a5,0x3
   109c8:	fd040713          	addi	a4,s0,-48
   109cc:	97ba                	c.add	a5,a4
   109ce:	f207a503          	lw	a0,-224(a5)
   109d2:	f247a583          	lw	a1,-220(a5)
   109d6:	fc842783          	lw	a5,-56(s0)
   109da:	00178713          	addi	a4,a5,1
   109de:	4795                	c.li	a5,5
   109e0:	02f766b3          	rem	a3,a4,a5
   109e4:	fc442703          	lw	a4,-60(s0)
   109e8:	4795                	c.li	a5,5
   109ea:	02f76733          	rem	a4,a4,a5
   109ee:	87ba                	c.mv	a5,a4
   109f0:	078a                	c.slli	a5,0x2
   109f2:	97ba                	c.add	a5,a4
   109f4:	97b6                	c.add	a5,a3
   109f6:	078e                	c.slli	a5,0x3
   109f8:	fd040713          	addi	a4,s0,-48
   109fc:	97ba                	c.add	a5,a4
   109fe:	f207a703          	lw	a4,-224(a5)
   10a02:	f247a783          	lw	a5,-220(a5)
   10a06:	fff74d13          	xori	s10,a4,-1
   10a0a:	fff7cd93          	xori	s11,a5,-1
   10a0e:	fc842783          	lw	a5,-56(s0)
   10a12:	00278713          	addi	a4,a5,2
   10a16:	4795                	c.li	a5,5
   10a18:	02f766b3          	rem	a3,a4,a5
   10a1c:	fc442703          	lw	a4,-60(s0)
   10a20:	4795                	c.li	a5,5
   10a22:	02f76733          	rem	a4,a4,a5
   10a26:	87ba                	c.mv	a5,a4
   10a28:	078a                	c.slli	a5,0x2
   10a2a:	97ba                	c.add	a5,a4
   10a2c:	97b6                	c.add	a5,a3
   10a2e:	078e                	c.slli	a5,0x3
   10a30:	fd040713          	addi	a4,s0,-48
   10a34:	97ba                	c.add	a5,a4
   10a36:	f207a703          	lw	a4,-224(a5)
   10a3a:	f247a783          	lw	a5,-220(a5)
   10a3e:	00ed7c33          	and	s8,s10,a4
   10a42:	00fdfcb3          	and	s9,s11,a5
   10a46:	fc842703          	lw	a4,-56(s0)
   10a4a:	4795                	c.li	a5,5
   10a4c:	02f766b3          	rem	a3,a4,a5
   10a50:	fc442703          	lw	a4,-60(s0)
   10a54:	4795                	c.li	a5,5
   10a56:	02f76733          	rem	a4,a4,a5
   10a5a:	87ba                	c.mv	a5,a4
   10a5c:	078a                	c.slli	a5,0x2
   10a5e:	97ba                	c.add	a5,a4
   10a60:	97b6                	c.add	a5,a3
   10a62:	00379713          	slli	a4,a5,0x3
   10a66:	ebc42783          	lw	a5,-324(s0)
   10a6a:	97ba                	c.add	a5,a4
   10a6c:	01854733          	xor	a4,a0,s8
   10a70:	eae42423          	sw	a4,-344(s0)
   10a74:	0195c733          	xor	a4,a1,s9
   10a78:	eae42623          	sw	a4,-340(s0)
   10a7c:	ea842683          	lw	a3,-344(s0)
   10a80:	eac42703          	lw	a4,-340(s0)
   10a84:	c394                	c.sw	a3,0(a5)
   10a86:	c3d8                	c.sw	a4,4(a5)
   10a88:	fc842783          	lw	a5,-56(s0)
   10a8c:	0785                	c.addi	a5,1
   10a8e:	fcf42423          	sw	a5,-56(s0)
   10a92:	fc842703          	lw	a4,-56(s0)
   10a96:	4791                	c.li	a5,4
   10a98:	f0e7d9e3          	bge	a5,a4,109aa <KeccakF1600_StatePermute+0x2e8>
   10a9c:	fc442783          	lw	a5,-60(s0)
   10aa0:	0785                	c.addi	a5,1
   10aa2:	fcf42223          	sw	a5,-60(s0)
   10aa6:	fc442703          	lw	a4,-60(s0)
   10aaa:	4791                	c.li	a5,4
   10aac:	eee7dce3          	bge	a5,a4,109a4 <KeccakF1600_StatePermute+0x2e2>
   10ab0:	ebc42783          	lw	a5,-324(s0)
   10ab4:	4390                	c.lw	a2,0(a5)
   10ab6:	43d4                	c.lw	a3,4(a5)
   10ab8:	67c9                	c.lui	a5,0x12
   10aba:	49078713          	addi	a4,a5,1168 # 12490 <KeccakP1600RoundConstants>
   10abe:	fcc42783          	lw	a5,-52(s0)
   10ac2:	078e                	c.slli	a5,0x3
   10ac4:	97ba                	c.add	a5,a4
   10ac6:	4398                	c.lw	a4,0(a5)
   10ac8:	43dc                	c.lw	a5,4(a5)
   10aca:	00e645b3          	xor	a1,a2,a4
   10ace:	eab42023          	sw	a1,-352(s0)
   10ad2:	8fb5                	c.xor	a5,a3
   10ad4:	eaf42223          	sw	a5,-348(s0)
   10ad8:	ebc42783          	lw	a5,-324(s0)
   10adc:	ea042683          	lw	a3,-352(s0)
   10ae0:	ea442703          	lw	a4,-348(s0)
   10ae4:	c394                	c.sw	a3,0(a5)
   10ae6:	c3d8                	c.sw	a4,4(a5)
   10ae8:	fcc42783          	lw	a5,-52(s0)
   10aec:	0785                	c.addi	a5,1
   10aee:	fcf42623          	sw	a5,-52(s0)
   10af2:	fcc42703          	lw	a4,-52(s0)
   10af6:	47dd                	c.li	a5,23
   10af8:	c0e7d2e3          	bge	a5,a4,106fc <KeccakF1600_StatePermute+0x3a>
   10afc:	0001                	c.addi	zero,0
   10afe:	0001                	c.addi	zero,0
   10b00:	16c12403          	lw	s0,364(sp)
   10b04:	16812903          	lw	s2,360(sp)
   10b08:	16412983          	lw	s3,356(sp)
   10b0c:	16012a03          	lw	s4,352(sp)
   10b10:	15c12a83          	lw	s5,348(sp)
   10b14:	15812b03          	lw	s6,344(sp)
   10b18:	15412b83          	lw	s7,340(sp)
   10b1c:	15012c03          	lw	s8,336(sp)
   10b20:	14c12c83          	lw	s9,332(sp)
   10b24:	14812d03          	lw	s10,328(sp)
   10b28:	14412d83          	lw	s11,324(sp)
   10b2c:	6175                	c.addi16sp	sp,368
   10b2e:	8082                	c.jr	ra

00010b30 <Keccak>:
   10b30:	7129                	c.addi16sp	sp,-320
   10b32:	12112623          	sw	ra,300(sp)
   10b36:	12812423          	sw	s0,296(sp)
   10b3a:	13212223          	sw	s2,292(sp)
   10b3e:	13312023          	sw	s3,288(sp)
   10b42:	11412e23          	sw	s4,284(sp)
   10b46:	11512c23          	sw	s5,280(sp)
   10b4a:	11612a23          	sw	s6,276(sp)
   10b4e:	11712823          	sw	s7,272(sp)
   10b52:	11812623          	sw	s8,268(sp)
   10b56:	11912423          	sw	s9,264(sp)
   10b5a:	1a00                	c.addi4spn	s0,sp,304
   10b5c:	eea42623          	sw	a0,-276(s0)
   10b60:	eeb42423          	sw	a1,-280(s0)
   10b64:	eec42223          	sw	a2,-284(s0)
   10b68:	ecd42c23          	sw	a3,-296(s0)
   10b6c:	ece42e23          	sw	a4,-292(s0)
   10b70:	ed042a23          	sw	a6,-300(s0)
   10b74:	01142623          	sw	a7,12(s0)
   10b78:	eef401a3          	sb	a5,-285(s0)
   10b7c:	eec42783          	lw	a5,-276(s0)
   10b80:	838d                	c.srli	a5,0x3
   10b82:	fcf42223          	sw	a5,-60(s0)
   10b86:	fc042623          	sw	zero,-52(s0)
   10b8a:	eec42703          	lw	a4,-276(s0)
   10b8e:	ee842783          	lw	a5,-280(s0)
   10b92:	973e                	c.add	a4,a5
   10b94:	64000793          	addi	a5,zero,1600
   10b98:	1ef71d63          	bne	a4,a5,10d92 <Keccak+0x262>
   10b9c:	eec42783          	lw	a5,-276(s0)
   10ba0:	8b9d                	c.andi	a5,7
   10ba2:	1e079863          	bne	a5,zero,10d92 <Keccak+0x262>
   10ba6:	efc40793          	addi	a5,s0,-260
   10baa:	0c800613          	addi	a2,zero,200
   10bae:	4581                	c.li	a1,0
   10bb0:	853e                	c.mv	a0,a5
   10bb2:	47f000ef          	jal	ra,11830 <memset>
   10bb6:	a8c1                	c.j	10c86 <Keccak+0x156>
   10bb8:	fc442783          	lw	a5,-60(s0)
   10bbc:	8c3e                	c.mv	s8,a5
   10bbe:	4c81                	c.li	s9,0
   10bc0:	ed842703          	lw	a4,-296(s0)
   10bc4:	edc42783          	lw	a5,-292(s0)
   10bc8:	863e                	c.mv	a2,a5
   10bca:	86e6                	c.mv	a3,s9
   10bcc:	00c6ea63          	bltu	a3,a2,10be0 <Keccak+0xb0>
   10bd0:	863e                	c.mv	a2,a5
   10bd2:	86e6                	c.mv	a3,s9
   10bd4:	00d61863          	bne	a2,a3,10be4 <Keccak+0xb4>
   10bd8:	863a                	c.mv	a2,a4
   10bda:	86e2                	c.mv	a3,s8
   10bdc:	00c6f463          	bgeu	a3,a2,10be4 <Keccak+0xb4>
   10be0:	8762                	c.mv	a4,s8
   10be2:	87e6                	c.mv	a5,s9
   10be4:	fce42623          	sw	a4,-52(s0)
   10be8:	fc042423          	sw	zero,-56(s0)
   10bec:	a835                	c.j	10c28 <Keccak+0xf8>
   10bee:	fc842783          	lw	a5,-56(s0)
   10bf2:	fd040713          	addi	a4,s0,-48
   10bf6:	97ba                	c.add	a5,a4
   10bf8:	f2c7c703          	lbu	a4,-212(a5)
   10bfc:	ee442683          	lw	a3,-284(s0)
   10c00:	fc842783          	lw	a5,-56(s0)
   10c04:	97b6                	c.add	a5,a3
   10c06:	0007c783          	lbu	a5,0(a5)
   10c0a:	8fb9                	c.xor	a5,a4
   10c0c:	0ff7f713          	andi	a4,a5,255
   10c10:	fc842783          	lw	a5,-56(s0)
   10c14:	fd040693          	addi	a3,s0,-48
   10c18:	97b6                	c.add	a5,a3
   10c1a:	f2e78623          	sb	a4,-212(a5)
   10c1e:	fc842783          	lw	a5,-56(s0)
   10c22:	0785                	c.addi	a5,1
   10c24:	fcf42423          	sw	a5,-56(s0)
   10c28:	fc842703          	lw	a4,-56(s0)
   10c2c:	fcc42783          	lw	a5,-52(s0)
   10c30:	faf76fe3          	bltu	a4,a5,10bee <Keccak+0xbe>
   10c34:	ee442703          	lw	a4,-284(s0)
   10c38:	fcc42783          	lw	a5,-52(s0)
   10c3c:	97ba                	c.add	a5,a4
   10c3e:	eef42223          	sw	a5,-284(s0)
   10c42:	fcc42783          	lw	a5,-52(s0)
   10c46:	8a3e                	c.mv	s4,a5
   10c48:	4a81                	c.li	s5,0
   10c4a:	ed842603          	lw	a2,-296(s0)
   10c4e:	edc42683          	lw	a3,-292(s0)
   10c52:	41460733          	sub	a4,a2,s4
   10c56:	85ba                	c.mv	a1,a4
   10c58:	00b635b3          	sltu	a1,a2,a1
   10c5c:	415687b3          	sub	a5,a3,s5
   10c60:	40b786b3          	sub	a3,a5,a1
   10c64:	87b6                	c.mv	a5,a3
   10c66:	ece42c23          	sw	a4,-296(s0)
   10c6a:	ecf42e23          	sw	a5,-292(s0)
   10c6e:	fcc42703          	lw	a4,-52(s0)
   10c72:	fc442783          	lw	a5,-60(s0)
   10c76:	00f71863          	bne	a4,a5,10c86 <Keccak+0x156>
   10c7a:	efc40793          	addi	a5,s0,-260
   10c7e:	853e                	c.mv	a0,a5
   10c80:	3489                	c.jal	106c2 <KeccakF1600_StatePermute>
   10c82:	fc042623          	sw	zero,-52(s0)
   10c86:	ed842783          	lw	a5,-296(s0)
   10c8a:	edc42703          	lw	a4,-292(s0)
   10c8e:	8fd9                	c.or	a5,a4
   10c90:	f785                	c.bnez	a5,10bb8 <Keccak+0x88>
   10c92:	fcc42783          	lw	a5,-52(s0)
   10c96:	fd040713          	addi	a4,s0,-48
   10c9a:	97ba                	c.add	a5,a4
   10c9c:	f2c7c703          	lbu	a4,-212(a5)
   10ca0:	ee344783          	lbu	a5,-285(s0)
   10ca4:	8fb9                	c.xor	a5,a4
   10ca6:	0ff7f713          	andi	a4,a5,255
   10caa:	fcc42783          	lw	a5,-52(s0)
   10cae:	fd040693          	addi	a3,s0,-48
   10cb2:	97b6                	c.add	a5,a3
   10cb4:	f2e78623          	sb	a4,-212(a5)
   10cb8:	ee340783          	lb	a5,-285(s0)
   10cbc:	0007dd63          	bge	a5,zero,10cd6 <Keccak+0x1a6>
   10cc0:	fc442783          	lw	a5,-60(s0)
   10cc4:	17fd                	c.addi	a5,-1
   10cc6:	fcc42703          	lw	a4,-52(s0)
   10cca:	00f71663          	bne	a4,a5,10cd6 <Keccak+0x1a6>
   10cce:	efc40793          	addi	a5,s0,-260
   10cd2:	853e                	c.mv	a0,a5
   10cd4:	32fd                	c.jal	106c2 <KeccakF1600_StatePermute>
   10cd6:	fc442783          	lw	a5,-60(s0)
   10cda:	17fd                	c.addi	a5,-1
   10cdc:	fd040713          	addi	a4,s0,-48
   10ce0:	97ba                	c.add	a5,a4
   10ce2:	f2c7c703          	lbu	a4,-212(a5)
   10ce6:	fc442783          	lw	a5,-60(s0)
   10cea:	17fd                	c.addi	a5,-1
   10cec:	f8074713          	xori	a4,a4,-128
   10cf0:	0ff77713          	andi	a4,a4,255
   10cf4:	fd040693          	addi	a3,s0,-48
   10cf8:	97b6                	c.add	a5,a3
   10cfa:	f2e78623          	sb	a4,-212(a5)
   10cfe:	efc40793          	addi	a5,s0,-260
   10d02:	853e                	c.mv	a0,a5
   10d04:	3a7d                	c.jal	106c2 <KeccakF1600_StatePermute>
   10d06:	a049                	c.j	10d88 <Keccak+0x258>
   10d08:	fc442783          	lw	a5,-60(s0)
   10d0c:	8b3e                	c.mv	s6,a5
   10d0e:	4b81                	c.li	s7,0
   10d10:	4458                	c.lw	a4,12(s0)
   10d12:	481c                	c.lw	a5,16(s0)
   10d14:	863e                	c.mv	a2,a5
   10d16:	86de                	c.mv	a3,s7
   10d18:	00c6ea63          	bltu	a3,a2,10d2c <Keccak+0x1fc>
   10d1c:	863e                	c.mv	a2,a5
   10d1e:	86de                	c.mv	a3,s7
   10d20:	00d61863          	bne	a2,a3,10d30 <Keccak+0x200>
   10d24:	863a                	c.mv	a2,a4
   10d26:	86da                	c.mv	a3,s6
   10d28:	00c6f463          	bgeu	a3,a2,10d30 <Keccak+0x200>
   10d2c:	875a                	c.mv	a4,s6
   10d2e:	87de                	c.mv	a5,s7
   10d30:	fce42623          	sw	a4,-52(s0)
   10d34:	efc40793          	addi	a5,s0,-260
   10d38:	fcc42603          	lw	a2,-52(s0)
   10d3c:	85be                	c.mv	a1,a5
   10d3e:	ed442503          	lw	a0,-300(s0)
   10d42:	1d3000ef          	jal	ra,11714 <memcpy>
   10d46:	ed442703          	lw	a4,-300(s0)
   10d4a:	fcc42783          	lw	a5,-52(s0)
   10d4e:	97ba                	c.add	a5,a4
   10d50:	ecf42a23          	sw	a5,-300(s0)
   10d54:	fcc42783          	lw	a5,-52(s0)
   10d58:	893e                	c.mv	s2,a5
   10d5a:	4981                	c.li	s3,0
   10d5c:	4450                	c.lw	a2,12(s0)
   10d5e:	4814                	c.lw	a3,16(s0)
   10d60:	41260733          	sub	a4,a2,s2
   10d64:	85ba                	c.mv	a1,a4
   10d66:	00b635b3          	sltu	a1,a2,a1
   10d6a:	413687b3          	sub	a5,a3,s3
   10d6e:	40b786b3          	sub	a3,a5,a1
   10d72:	87b6                	c.mv	a5,a3
   10d74:	c458                	c.sw	a4,12(s0)
   10d76:	c81c                	c.sw	a5,16(s0)
   10d78:	445c                	c.lw	a5,12(s0)
   10d7a:	4818                	c.lw	a4,16(s0)
   10d7c:	8fd9                	c.or	a5,a4
   10d7e:	c789                	c.beqz	a5,10d88 <Keccak+0x258>
   10d80:	efc40793          	addi	a5,s0,-260
   10d84:	853e                	c.mv	a0,a5
   10d86:	3a35                	c.jal	106c2 <KeccakF1600_StatePermute>
   10d88:	445c                	c.lw	a5,12(s0)
   10d8a:	4818                	c.lw	a4,16(s0)
   10d8c:	8fd9                	c.or	a5,a4
   10d8e:	ffad                	c.bnez	a5,10d08 <Keccak+0x1d8>
   10d90:	a011                	c.j	10d94 <Keccak+0x264>
   10d92:	0001                	c.addi	zero,0
   10d94:	12c12083          	lw	ra,300(sp)
   10d98:	12812403          	lw	s0,296(sp)
   10d9c:	12412903          	lw	s2,292(sp)
   10da0:	12012983          	lw	s3,288(sp)
   10da4:	11c12a03          	lw	s4,284(sp)
   10da8:	11812a83          	lw	s5,280(sp)
   10dac:	11412b03          	lw	s6,276(sp)
   10db0:	11012b83          	lw	s7,272(sp)
   10db4:	10c12c03          	lw	s8,268(sp)
   10db8:	10812c83          	lw	s9,264(sp)
   10dbc:	6131                	c.addi16sp	sp,320
   10dbe:	8082                	c.jr	ra

00010dc0 <calloc>:
   10dc0:	00050793          	addi	a5,a0,0
   10dc4:	0401a503          	lw	a0,64(gp) # 13e08 <_impure_ptr>
   10dc8:	00058613          	addi	a2,a1,0
   10dcc:	00078593          	addi	a1,a5,0
   10dd0:	0040006f          	jal	zero,10dd4 <_calloc_r>

00010dd4 <_calloc_r>:
   10dd4:	ff010113          	addi	sp,sp,-16
   10dd8:	00812423          	sw	s0,8(sp)
   10ddc:	00050413          	addi	s0,a0,0
   10de0:	00058513          	addi	a0,a1,0
   10de4:	00060593          	addi	a1,a2,0
   10de8:	00112623          	sw	ra,12(sp)
   10dec:	5ec010ef          	jal	ra,123d8 <__mulsi3>
   10df0:	00050593          	addi	a1,a0,0
   10df4:	00040513          	addi	a0,s0,0
   10df8:	184000ef          	jal	ra,10f7c <_malloc_r>
   10dfc:	00050413          	addi	s0,a0,0
   10e00:	02050863          	beq	a0,zero,10e30 <_calloc_r+0x5c>
   10e04:	ffc52603          	lw	a2,-4(a0)
   10e08:	02400713          	addi	a4,zero,36
   10e0c:	ffc67613          	andi	a2,a2,-4
   10e10:	ffc60613          	addi	a2,a2,-4
   10e14:	06c76063          	bltu	a4,a2,10e74 <_calloc_r+0xa0>
   10e18:	01300693          	addi	a3,zero,19
   10e1c:	00050793          	addi	a5,a0,0
   10e20:	02c6e263          	bltu	a3,a2,10e44 <_calloc_r+0x70>
   10e24:	0007a023          	sw	zero,0(a5)
   10e28:	0007a223          	sw	zero,4(a5)
   10e2c:	0007a423          	sw	zero,8(a5)
   10e30:	00c12083          	lw	ra,12(sp)
   10e34:	00040513          	addi	a0,s0,0
   10e38:	00812403          	lw	s0,8(sp)
   10e3c:	01010113          	addi	sp,sp,16
   10e40:	00008067          	jalr	zero,0(ra)
   10e44:	00052023          	sw	zero,0(a0)
   10e48:	00052223          	sw	zero,4(a0)
   10e4c:	01b00793          	addi	a5,zero,27
   10e50:	04c7f063          	bgeu	a5,a2,10e90 <_calloc_r+0xbc>
   10e54:	00052423          	sw	zero,8(a0)
   10e58:	00052623          	sw	zero,12(a0)
   10e5c:	01050793          	addi	a5,a0,16
   10e60:	fce612e3          	bne	a2,a4,10e24 <_calloc_r+0x50>
   10e64:	00052823          	sw	zero,16(a0)
   10e68:	01850793          	addi	a5,a0,24
   10e6c:	00052a23          	sw	zero,20(a0)
   10e70:	fb5ff06f          	jal	zero,10e24 <_calloc_r+0x50>
   10e74:	00000593          	addi	a1,zero,0
   10e78:	1b9000ef          	jal	ra,11830 <memset>
   10e7c:	00c12083          	lw	ra,12(sp)
   10e80:	00040513          	addi	a0,s0,0
   10e84:	00812403          	lw	s0,8(sp)
   10e88:	01010113          	addi	sp,sp,16
   10e8c:	00008067          	jalr	zero,0(ra)
   10e90:	00850793          	addi	a5,a0,8
   10e94:	f91ff06f          	jal	zero,10e24 <_calloc_r+0x50>

00010e98 <exit>:
   10e98:	ff010113          	addi	sp,sp,-16
   10e9c:	00000593          	addi	a1,zero,0
   10ea0:	00812423          	sw	s0,8(sp)
   10ea4:	00112623          	sw	ra,12(sp)
   10ea8:	00050413          	addi	s0,a0,0
   10eac:	381000ef          	jal	ra,11a2c <__call_exitprocs>
   10eb0:	0381a503          	lw	a0,56(gp) # 13e00 <_global_impure_ptr>
   10eb4:	03c52783          	lw	a5,60(a0)
   10eb8:	00078463          	beq	a5,zero,10ec0 <exit+0x28>
   10ebc:	000780e7          	jalr	ra,0(a5)
   10ec0:	00040513          	addi	a0,s0,0
   10ec4:	3d4010ef          	jal	ra,12298 <_exit>

00010ec8 <__libc_init_array>:
   10ec8:	ff010113          	addi	sp,sp,-16
   10ecc:	00812423          	sw	s0,8(sp)
   10ed0:	01212023          	sw	s2,0(sp)
   10ed4:	00013437          	lui	s0,0x13
   10ed8:	00013937          	lui	s2,0x13
   10edc:	5b840793          	addi	a5,s0,1464 # 135b8 <__init_array_start>
   10ee0:	5b890913          	addi	s2,s2,1464 # 135b8 <__init_array_start>
   10ee4:	40f90933          	sub	s2,s2,a5
   10ee8:	00112623          	sw	ra,12(sp)
   10eec:	00912223          	sw	s1,4(sp)
   10ef0:	40295913          	srai	s2,s2,0x2
   10ef4:	02090063          	beq	s2,zero,10f14 <__libc_init_array+0x4c>
   10ef8:	5b840413          	addi	s0,s0,1464
   10efc:	00000493          	addi	s1,zero,0
   10f00:	00042783          	lw	a5,0(s0)
   10f04:	00148493          	addi	s1,s1,1
   10f08:	00440413          	addi	s0,s0,4
   10f0c:	000780e7          	jalr	ra,0(a5)
   10f10:	fe9918e3          	bne	s2,s1,10f00 <__libc_init_array+0x38>
   10f14:	00013437          	lui	s0,0x13
   10f18:	00013937          	lui	s2,0x13
   10f1c:	5b840793          	addi	a5,s0,1464 # 135b8 <__init_array_start>
   10f20:	5c090913          	addi	s2,s2,1472 # 135c0 <__do_global_dtors_aux_fini_array_entry>
   10f24:	40f90933          	sub	s2,s2,a5
   10f28:	40295913          	srai	s2,s2,0x2
   10f2c:	02090063          	beq	s2,zero,10f4c <__libc_init_array+0x84>
   10f30:	5b840413          	addi	s0,s0,1464
   10f34:	00000493          	addi	s1,zero,0
   10f38:	00042783          	lw	a5,0(s0)
   10f3c:	00148493          	addi	s1,s1,1
   10f40:	00440413          	addi	s0,s0,4
   10f44:	000780e7          	jalr	ra,0(a5)
   10f48:	fe9918e3          	bne	s2,s1,10f38 <__libc_init_array+0x70>
   10f4c:	00c12083          	lw	ra,12(sp)
   10f50:	00812403          	lw	s0,8(sp)
   10f54:	00412483          	lw	s1,4(sp)
   10f58:	00012903          	lw	s2,0(sp)
   10f5c:	01010113          	addi	sp,sp,16
   10f60:	00008067          	jalr	zero,0(ra)

00010f64 <malloc>:
   10f64:	00050593          	addi	a1,a0,0
   10f68:	0401a503          	lw	a0,64(gp) # 13e08 <_impure_ptr>
   10f6c:	0100006f          	jal	zero,10f7c <_malloc_r>

00010f70 <free>:
   10f70:	00050593          	addi	a1,a0,0
   10f74:	0401a503          	lw	a0,64(gp) # 13e08 <_impure_ptr>
   10f78:	5610006f          	jal	zero,11cd8 <_free_r>

00010f7c <_malloc_r>:
   10f7c:	fd010113          	addi	sp,sp,-48
   10f80:	01312e23          	sw	s3,28(sp)
   10f84:	02112623          	sw	ra,44(sp)
   10f88:	02812423          	sw	s0,40(sp)
   10f8c:	02912223          	sw	s1,36(sp)
   10f90:	03212023          	sw	s2,32(sp)
   10f94:	01412c23          	sw	s4,24(sp)
   10f98:	01512a23          	sw	s5,20(sp)
   10f9c:	01612823          	sw	s6,16(sp)
   10fa0:	01712623          	sw	s7,12(sp)
   10fa4:	01812423          	sw	s8,8(sp)
   10fa8:	01912223          	sw	s9,4(sp)
   10fac:	00b58793          	addi	a5,a1,11
   10fb0:	01600713          	addi	a4,zero,22
   10fb4:	00050993          	addi	s3,a0,0
   10fb8:	06f76463          	bltu	a4,a5,11020 <_malloc_r+0xa4>
   10fbc:	01000793          	addi	a5,zero,16
   10fc0:	1eb7e263          	bltu	a5,a1,111a4 <_malloc_r+0x228>
   10fc4:	149000ef          	jal	ra,1190c <__malloc_lock>
   10fc8:	01000493          	addi	s1,zero,16
   10fcc:	01800793          	addi	a5,zero,24
   10fd0:	00200613          	addi	a2,zero,2
   10fd4:	c2818913          	addi	s2,gp,-984 # 139f0 <__malloc_av_>
   10fd8:	00f907b3          	add	a5,s2,a5
   10fdc:	0047a403          	lw	s0,4(a5)
   10fe0:	ff878713          	addi	a4,a5,-8
   10fe4:	20e40863          	beq	s0,a4,111f4 <_malloc_r+0x278>
   10fe8:	00442783          	lw	a5,4(s0)
   10fec:	00c42683          	lw	a3,12(s0)
   10ff0:	00842603          	lw	a2,8(s0)
   10ff4:	ffc7f793          	andi	a5,a5,-4
   10ff8:	00f407b3          	add	a5,s0,a5
   10ffc:	0047a703          	lw	a4,4(a5)
   11000:	00d62623          	sw	a3,12(a2)
   11004:	00c6a423          	sw	a2,8(a3)
   11008:	00176713          	ori	a4,a4,1
   1100c:	00098513          	addi	a0,s3,0
   11010:	00e7a223          	sw	a4,4(a5)
   11014:	0fd000ef          	jal	ra,11910 <__malloc_unlock>
   11018:	00840513          	addi	a0,s0,8
   1101c:	1940006f          	jal	zero,111b0 <_malloc_r+0x234>
   11020:	ff87f493          	andi	s1,a5,-8
   11024:	1807c063          	blt	a5,zero,111a4 <_malloc_r+0x228>
   11028:	16b4ee63          	bltu	s1,a1,111a4 <_malloc_r+0x228>
   1102c:	0e1000ef          	jal	ra,1190c <__malloc_lock>
   11030:	1f700793          	addi	a5,zero,503
   11034:	4497fa63          	bgeu	a5,s1,11488 <_malloc_r+0x50c>
   11038:	0094d793          	srli	a5,s1,0x9
   1103c:	1a078463          	beq	a5,zero,111e4 <_malloc_r+0x268>
   11040:	00400713          	addi	a4,zero,4
   11044:	3cf76063          	bltu	a4,a5,11404 <_malloc_r+0x488>
   11048:	0064d793          	srli	a5,s1,0x6
   1104c:	03978613          	addi	a2,a5,57
   11050:	03878513          	addi	a0,a5,56
   11054:	00361693          	slli	a3,a2,0x3
   11058:	c2818913          	addi	s2,gp,-984 # 139f0 <__malloc_av_>
   1105c:	00d906b3          	add	a3,s2,a3
   11060:	0046a403          	lw	s0,4(a3)
   11064:	ff868693          	addi	a3,a3,-8
   11068:	02868663          	beq	a3,s0,11094 <_malloc_r+0x118>
   1106c:	00f00593          	addi	a1,zero,15
   11070:	0100006f          	jal	zero,11080 <_malloc_r+0x104>
   11074:	32075263          	bge	a4,zero,11398 <_malloc_r+0x41c>
   11078:	00c42403          	lw	s0,12(s0)
   1107c:	00868c63          	beq	a3,s0,11094 <_malloc_r+0x118>
   11080:	00442783          	lw	a5,4(s0)
   11084:	ffc7f793          	andi	a5,a5,-4
   11088:	40978733          	sub	a4,a5,s1
   1108c:	fee5d4e3          	bge	a1,a4,11074 <_malloc_r+0xf8>
   11090:	00050613          	addi	a2,a0,0
   11094:	01092403          	lw	s0,16(s2)
   11098:	00890893          	addi	a7,s2,8
   1109c:	17140863          	beq	s0,a7,1120c <_malloc_r+0x290>
   110a0:	00442503          	lw	a0,4(s0)
   110a4:	00f00693          	addi	a3,zero,15
   110a8:	ffc57513          	andi	a0,a0,-4
   110ac:	409507b3          	sub	a5,a0,s1
   110b0:	40f6c263          	blt	a3,a5,114b4 <_malloc_r+0x538>
   110b4:	01192a23          	sw	a7,20(s2)
   110b8:	01192823          	sw	a7,16(s2)
   110bc:	3c07dc63          	bge	a5,zero,11494 <_malloc_r+0x518>
   110c0:	1ff00793          	addi	a5,zero,511
   110c4:	2ea7e063          	bltu	a5,a0,113a4 <_malloc_r+0x428>
   110c8:	ff857793          	andi	a5,a0,-8
   110cc:	00878793          	addi	a5,a5,8
   110d0:	00492583          	lw	a1,4(s2)
   110d4:	00f907b3          	add	a5,s2,a5
   110d8:	0007a683          	lw	a3,0(a5)
   110dc:	00555513          	srli	a0,a0,0x5
   110e0:	00100713          	addi	a4,zero,1
   110e4:	00a71733          	sll	a4,a4,a0
   110e8:	00b76733          	or	a4,a4,a1
   110ec:	ff878593          	addi	a1,a5,-8
   110f0:	00b42623          	sw	a1,12(s0)
   110f4:	00d42423          	sw	a3,8(s0)
   110f8:	00e92223          	sw	a4,4(s2)
   110fc:	0087a023          	sw	s0,0(a5)
   11100:	0086a623          	sw	s0,12(a3)
   11104:	40265793          	srai	a5,a2,0x2
   11108:	00100593          	addi	a1,zero,1
   1110c:	00f595b3          	sll	a1,a1,a5
   11110:	10b76863          	bltu	a4,a1,11220 <_malloc_r+0x2a4>
   11114:	00e5f7b3          	and	a5,a1,a4
   11118:	02079463          	bne	a5,zero,11140 <_malloc_r+0x1c4>
   1111c:	00159593          	slli	a1,a1,0x1
   11120:	ffc67613          	andi	a2,a2,-4
   11124:	00e5f7b3          	and	a5,a1,a4
   11128:	00460613          	addi	a2,a2,4
   1112c:	00079a63          	bne	a5,zero,11140 <_malloc_r+0x1c4>
   11130:	00159593          	slli	a1,a1,0x1
   11134:	00e5f7b3          	and	a5,a1,a4
   11138:	00460613          	addi	a2,a2,4
   1113c:	fe078ae3          	beq	a5,zero,11130 <_malloc_r+0x1b4>
   11140:	00f00813          	addi	a6,zero,15
   11144:	00361313          	slli	t1,a2,0x3
   11148:	00690333          	add	t1,s2,t1
   1114c:	00030513          	addi	a0,t1,0 # 10138 <frame_dummy+0x14>
   11150:	00c52783          	lw	a5,12(a0)
   11154:	00060e13          	addi	t3,a2,0
   11158:	2cf50863          	beq	a0,a5,11428 <_malloc_r+0x4ac>
   1115c:	0047a703          	lw	a4,4(a5)
   11160:	00078413          	addi	s0,a5,0
   11164:	00c7a783          	lw	a5,12(a5)
   11168:	ffc77713          	andi	a4,a4,-4
   1116c:	409706b3          	sub	a3,a4,s1
   11170:	2cd84863          	blt	a6,a3,11440 <_malloc_r+0x4c4>
   11174:	fe06c2e3          	blt	a3,zero,11158 <_malloc_r+0x1dc>
   11178:	00e40733          	add	a4,s0,a4
   1117c:	00472683          	lw	a3,4(a4)
   11180:	00842603          	lw	a2,8(s0)
   11184:	00098513          	addi	a0,s3,0
   11188:	0016e693          	ori	a3,a3,1
   1118c:	00d72223          	sw	a3,4(a4)
   11190:	00f62623          	sw	a5,12(a2)
   11194:	00c7a423          	sw	a2,8(a5)
   11198:	778000ef          	jal	ra,11910 <__malloc_unlock>
   1119c:	00840513          	addi	a0,s0,8
   111a0:	0100006f          	jal	zero,111b0 <_malloc_r+0x234>
   111a4:	00c00793          	addi	a5,zero,12
   111a8:	00f9a023          	sw	a5,0(s3)
   111ac:	00000513          	addi	a0,zero,0
   111b0:	02c12083          	lw	ra,44(sp)
   111b4:	02812403          	lw	s0,40(sp)
   111b8:	02412483          	lw	s1,36(sp)
   111bc:	02012903          	lw	s2,32(sp)
   111c0:	01c12983          	lw	s3,28(sp)
   111c4:	01812a03          	lw	s4,24(sp)
   111c8:	01412a83          	lw	s5,20(sp)
   111cc:	01012b03          	lw	s6,16(sp)
   111d0:	00c12b83          	lw	s7,12(sp)
   111d4:	00812c03          	lw	s8,8(sp)
   111d8:	00412c83          	lw	s9,4(sp)
   111dc:	03010113          	addi	sp,sp,48
   111e0:	00008067          	jalr	zero,0(ra)
   111e4:	20000693          	addi	a3,zero,512
   111e8:	04000613          	addi	a2,zero,64
   111ec:	03f00513          	addi	a0,zero,63
   111f0:	e69ff06f          	jal	zero,11058 <_malloc_r+0xdc>
   111f4:	00c7a403          	lw	s0,12(a5)
   111f8:	00260613          	addi	a2,a2,2
   111fc:	de8796e3          	bne	a5,s0,10fe8 <_malloc_r+0x6c>
   11200:	01092403          	lw	s0,16(s2)
   11204:	00890893          	addi	a7,s2,8
   11208:	e9141ce3          	bne	s0,a7,110a0 <_malloc_r+0x124>
   1120c:	00492703          	lw	a4,4(s2)
   11210:	40265793          	srai	a5,a2,0x2
   11214:	00100593          	addi	a1,zero,1
   11218:	00f595b3          	sll	a1,a1,a5
   1121c:	eeb77ce3          	bgeu	a4,a1,11114 <_malloc_r+0x198>
   11220:	00892403          	lw	s0,8(s2)
   11224:	00442a83          	lw	s5,4(s0)
   11228:	ffcafb13          	andi	s6,s5,-4
   1122c:	009b6863          	bltu	s6,s1,1123c <_malloc_r+0x2c0>
   11230:	409b07b3          	sub	a5,s6,s1
   11234:	00f00713          	addi	a4,zero,15
   11238:	12f74c63          	blt	a4,a5,11370 <_malloc_r+0x3f4>
   1123c:	0541aa83          	lw	s5,84(gp) # 13e1c <__malloc_top_pad>
   11240:	0441a703          	lw	a4,68(gp) # 13e0c <__malloc_sbrk_base>
   11244:	fff00793          	addi	a5,zero,-1
   11248:	01640a33          	add	s4,s0,s6
   1124c:	01548ab3          	add	s5,s1,s5
   11250:	34f70463          	beq	a4,a5,11598 <_malloc_r+0x61c>
   11254:	000017b7          	lui	a5,0x1
   11258:	00f78793          	addi	a5,a5,15 # 100f <register_fini-0xf065>
   1125c:	00fa8ab3          	add	s5,s5,a5
   11260:	fffff7b7          	lui	a5,0xfffff
   11264:	00fafab3          	and	s5,s5,a5
   11268:	000a8593          	addi	a1,s5,0
   1126c:	00098513          	addi	a0,s3,0
   11270:	704000ef          	jal	ra,11974 <_sbrk_r>
   11274:	fff00793          	addi	a5,zero,-1
   11278:	00050b93          	addi	s7,a0,0
   1127c:	28f50663          	beq	a0,a5,11508 <_malloc_r+0x58c>
   11280:	29456263          	bltu	a0,s4,11504 <_malloc_r+0x588>
   11284:	07c18c13          	addi	s8,gp,124 # 13e44 <__malloc_current_mallinfo>
   11288:	000c2583          	lw	a1,0(s8)
   1128c:	00ba85b3          	add	a1,s5,a1
   11290:	00bc2023          	sw	a1,0(s8)
   11294:	00058793          	addi	a5,a1,0
   11298:	38aa0e63          	beq	s4,a0,11634 <_malloc_r+0x6b8>
   1129c:	0441a683          	lw	a3,68(gp) # 13e0c <__malloc_sbrk_base>
   112a0:	fff00713          	addi	a4,zero,-1
   112a4:	3ae68663          	beq	a3,a4,11650 <_malloc_r+0x6d4>
   112a8:	414b8a33          	sub	s4,s7,s4
   112ac:	00fa07b3          	add	a5,s4,a5
   112b0:	00fc2023          	sw	a5,0(s8)
   112b4:	007bfc93          	andi	s9,s7,7
   112b8:	300c8263          	beq	s9,zero,115bc <_malloc_r+0x640>
   112bc:	000017b7          	lui	a5,0x1
   112c0:	419b8bb3          	sub	s7,s7,s9
   112c4:	00878593          	addi	a1,a5,8 # 1008 <register_fini-0xf06c>
   112c8:	008b8b93          	addi	s7,s7,8
   112cc:	419585b3          	sub	a1,a1,s9
   112d0:	015b8ab3          	add	s5,s7,s5
   112d4:	fff78793          	addi	a5,a5,-1
   112d8:	415585b3          	sub	a1,a1,s5
   112dc:	00f5fa33          	and	s4,a1,a5
   112e0:	000a0593          	addi	a1,s4,0
   112e4:	00098513          	addi	a0,s3,0
   112e8:	68c000ef          	jal	ra,11974 <_sbrk_r>
   112ec:	fff00793          	addi	a5,zero,-1
   112f0:	3af50a63          	beq	a0,a5,116a4 <_malloc_r+0x728>
   112f4:	41750533          	sub	a0,a0,s7
   112f8:	01450ab3          	add	s5,a0,s4
   112fc:	000c2583          	lw	a1,0(s8)
   11300:	01792423          	sw	s7,8(s2)
   11304:	001aea93          	ori	s5,s5,1
   11308:	00ba05b3          	add	a1,s4,a1
   1130c:	00bc2023          	sw	a1,0(s8)
   11310:	015ba223          	sw	s5,4(s7)
   11314:	35240263          	beq	s0,s2,11658 <_malloc_r+0x6dc>
   11318:	00f00693          	addi	a3,zero,15
   1131c:	3566f263          	bgeu	a3,s6,11660 <_malloc_r+0x6e4>
   11320:	00442703          	lw	a4,4(s0)
   11324:	ff4b0793          	addi	a5,s6,-12
   11328:	ff87f793          	andi	a5,a5,-8
   1132c:	00177713          	andi	a4,a4,1
   11330:	00f76733          	or	a4,a4,a5
   11334:	00e42223          	sw	a4,4(s0)
   11338:	00500613          	addi	a2,zero,5
   1133c:	00f40733          	add	a4,s0,a5
   11340:	00c72223          	sw	a2,4(a4)
   11344:	00c72423          	sw	a2,8(a4)
   11348:	36f6e863          	bltu	a3,a5,116b8 <_malloc_r+0x73c>
   1134c:	004baa83          	lw	s5,4(s7)
   11350:	000b8413          	addi	s0,s7,0
   11354:	0501a703          	lw	a4,80(gp) # 13e18 <__malloc_max_sbrked_mem>
   11358:	00b77463          	bgeu	a4,a1,11360 <_malloc_r+0x3e4>
   1135c:	04b1a823          	sw	a1,80(gp) # 13e18 <__malloc_max_sbrked_mem>
   11360:	04c1a703          	lw	a4,76(gp) # 13e14 <__malloc_max_total_mem>
   11364:	1ab77663          	bgeu	a4,a1,11510 <_malloc_r+0x594>
   11368:	04b1a623          	sw	a1,76(gp) # 13e14 <__malloc_max_total_mem>
   1136c:	1a40006f          	jal	zero,11510 <_malloc_r+0x594>
   11370:	0014e713          	ori	a4,s1,1
   11374:	00e42223          	sw	a4,4(s0)
   11378:	009404b3          	add	s1,s0,s1
   1137c:	00992423          	sw	s1,8(s2)
   11380:	0017e793          	ori	a5,a5,1
   11384:	00098513          	addi	a0,s3,0
   11388:	00f4a223          	sw	a5,4(s1)
   1138c:	584000ef          	jal	ra,11910 <__malloc_unlock>
   11390:	00840513          	addi	a0,s0,8
   11394:	e1dff06f          	jal	zero,111b0 <_malloc_r+0x234>
   11398:	00c42683          	lw	a3,12(s0)
   1139c:	00842603          	lw	a2,8(s0)
   113a0:	c59ff06f          	jal	zero,10ff8 <_malloc_r+0x7c>
   113a4:	00955793          	srli	a5,a0,0x9
   113a8:	00400713          	addi	a4,zero,4
   113ac:	14f77263          	bgeu	a4,a5,114f0 <_malloc_r+0x574>
   113b0:	01400713          	addi	a4,zero,20
   113b4:	22f76a63          	bltu	a4,a5,115e8 <_malloc_r+0x66c>
   113b8:	05c78693          	addi	a3,a5,92
   113bc:	05b78593          	addi	a1,a5,91
   113c0:	00369693          	slli	a3,a3,0x3
   113c4:	00d906b3          	add	a3,s2,a3
   113c8:	0006a783          	lw	a5,0(a3)
   113cc:	ff868693          	addi	a3,a3,-8
   113d0:	1cf68863          	beq	a3,a5,115a0 <_malloc_r+0x624>
   113d4:	0047a703          	lw	a4,4(a5)
   113d8:	ffc77713          	andi	a4,a4,-4
   113dc:	00e57663          	bgeu	a0,a4,113e8 <_malloc_r+0x46c>
   113e0:	0087a783          	lw	a5,8(a5)
   113e4:	fef698e3          	bne	a3,a5,113d4 <_malloc_r+0x458>
   113e8:	00c7a683          	lw	a3,12(a5)
   113ec:	00492703          	lw	a4,4(s2)
   113f0:	00d42623          	sw	a3,12(s0)
   113f4:	00f42423          	sw	a5,8(s0)
   113f8:	0086a423          	sw	s0,8(a3)
   113fc:	0087a623          	sw	s0,12(a5)
   11400:	d05ff06f          	jal	zero,11104 <_malloc_r+0x188>
   11404:	01400713          	addi	a4,zero,20
   11408:	12f77663          	bgeu	a4,a5,11534 <_malloc_r+0x5b8>
   1140c:	05400713          	addi	a4,zero,84
   11410:	1ef76a63          	bltu	a4,a5,11604 <_malloc_r+0x688>
   11414:	00c4d793          	srli	a5,s1,0xc
   11418:	06f78613          	addi	a2,a5,111
   1141c:	06e78513          	addi	a0,a5,110
   11420:	00361693          	slli	a3,a2,0x3
   11424:	c35ff06f          	jal	zero,11058 <_malloc_r+0xdc>
   11428:	001e0e13          	addi	t3,t3,1
   1142c:	003e7793          	andi	a5,t3,3
   11430:	00850513          	addi	a0,a0,8
   11434:	10078e63          	beq	a5,zero,11550 <_malloc_r+0x5d4>
   11438:	00c52783          	lw	a5,12(a0)
   1143c:	d1dff06f          	jal	zero,11158 <_malloc_r+0x1dc>
   11440:	00842603          	lw	a2,8(s0)
   11444:	0014e593          	ori	a1,s1,1
   11448:	00b42223          	sw	a1,4(s0)
   1144c:	00f62623          	sw	a5,12(a2)
   11450:	00c7a423          	sw	a2,8(a5)
   11454:	009404b3          	add	s1,s0,s1
   11458:	00992a23          	sw	s1,20(s2)
   1145c:	00992823          	sw	s1,16(s2)
   11460:	0016e793          	ori	a5,a3,1
   11464:	0114a623          	sw	a7,12(s1)
   11468:	0114a423          	sw	a7,8(s1)
   1146c:	00f4a223          	sw	a5,4(s1)
   11470:	00e40733          	add	a4,s0,a4
   11474:	00098513          	addi	a0,s3,0
   11478:	00d72023          	sw	a3,0(a4)
   1147c:	494000ef          	jal	ra,11910 <__malloc_unlock>
   11480:	00840513          	addi	a0,s0,8
   11484:	d2dff06f          	jal	zero,111b0 <_malloc_r+0x234>
   11488:	0034d613          	srli	a2,s1,0x3
   1148c:	00848793          	addi	a5,s1,8
   11490:	b45ff06f          	jal	zero,10fd4 <_malloc_r+0x58>
   11494:	00a40733          	add	a4,s0,a0
   11498:	00472783          	lw	a5,4(a4)
   1149c:	00098513          	addi	a0,s3,0
   114a0:	0017e793          	ori	a5,a5,1
   114a4:	00f72223          	sw	a5,4(a4)
   114a8:	468000ef          	jal	ra,11910 <__malloc_unlock>
   114ac:	00840513          	addi	a0,s0,8
   114b0:	d01ff06f          	jal	zero,111b0 <_malloc_r+0x234>
   114b4:	0014e713          	ori	a4,s1,1
   114b8:	00e42223          	sw	a4,4(s0)
   114bc:	009404b3          	add	s1,s0,s1
   114c0:	00992a23          	sw	s1,20(s2)
   114c4:	00992823          	sw	s1,16(s2)
   114c8:	0017e713          	ori	a4,a5,1
   114cc:	0114a623          	sw	a7,12(s1)
   114d0:	0114a423          	sw	a7,8(s1)
   114d4:	00e4a223          	sw	a4,4(s1)
   114d8:	00a40533          	add	a0,s0,a0
   114dc:	00f52023          	sw	a5,0(a0)
   114e0:	00098513          	addi	a0,s3,0
   114e4:	42c000ef          	jal	ra,11910 <__malloc_unlock>
   114e8:	00840513          	addi	a0,s0,8
   114ec:	cc5ff06f          	jal	zero,111b0 <_malloc_r+0x234>
   114f0:	00655793          	srli	a5,a0,0x6
   114f4:	03978693          	addi	a3,a5,57
   114f8:	03878593          	addi	a1,a5,56
   114fc:	00369693          	slli	a3,a3,0x3
   11500:	ec5ff06f          	jal	zero,113c4 <_malloc_r+0x448>
   11504:	11240e63          	beq	s0,s2,11620 <_malloc_r+0x6a4>
   11508:	00892403          	lw	s0,8(s2)
   1150c:	00442a83          	lw	s5,4(s0)
   11510:	ffcafa93          	andi	s5,s5,-4
   11514:	409a87b3          	sub	a5,s5,s1
   11518:	009ae663          	bltu	s5,s1,11524 <_malloc_r+0x5a8>
   1151c:	00f00713          	addi	a4,zero,15
   11520:	e4f748e3          	blt	a4,a5,11370 <_malloc_r+0x3f4>
   11524:	00098513          	addi	a0,s3,0
   11528:	3e8000ef          	jal	ra,11910 <__malloc_unlock>
   1152c:	00000513          	addi	a0,zero,0
   11530:	c81ff06f          	jal	zero,111b0 <_malloc_r+0x234>
   11534:	05c78613          	addi	a2,a5,92
   11538:	05b78513          	addi	a0,a5,91
   1153c:	00361693          	slli	a3,a2,0x3
   11540:	b19ff06f          	jal	zero,11058 <_malloc_r+0xdc>
   11544:	00832783          	lw	a5,8(t1)
   11548:	fff60613          	addi	a2,a2,-1
   1154c:	1c679063          	bne	a5,t1,1170c <_malloc_r+0x790>
   11550:	00367793          	andi	a5,a2,3
   11554:	ff830313          	addi	t1,t1,-8
   11558:	fe0796e3          	bne	a5,zero,11544 <_malloc_r+0x5c8>
   1155c:	00492703          	lw	a4,4(s2)
   11560:	fff5c793          	xori	a5,a1,-1
   11564:	00e7f7b3          	and	a5,a5,a4
   11568:	00f92223          	sw	a5,4(s2)
   1156c:	00159593          	slli	a1,a1,0x1
   11570:	cab7e8e3          	bltu	a5,a1,11220 <_malloc_r+0x2a4>
   11574:	ca0586e3          	beq	a1,zero,11220 <_malloc_r+0x2a4>
   11578:	00f5f733          	and	a4,a1,a5
   1157c:	00071a63          	bne	a4,zero,11590 <_malloc_r+0x614>
   11580:	00159593          	slli	a1,a1,0x1
   11584:	00f5f733          	and	a4,a1,a5
   11588:	004e0e13          	addi	t3,t3,4
   1158c:	fe070ae3          	beq	a4,zero,11580 <_malloc_r+0x604>
   11590:	000e0613          	addi	a2,t3,0
   11594:	bb1ff06f          	jal	zero,11144 <_malloc_r+0x1c8>
   11598:	010a8a93          	addi	s5,s5,16
   1159c:	ccdff06f          	jal	zero,11268 <_malloc_r+0x2ec>
   115a0:	00492503          	lw	a0,4(s2)
   115a4:	4025d593          	srai	a1,a1,0x2
   115a8:	00100713          	addi	a4,zero,1
   115ac:	00b71733          	sll	a4,a4,a1
   115b0:	00a76733          	or	a4,a4,a0
   115b4:	00e92223          	sw	a4,4(s2)
   115b8:	e39ff06f          	jal	zero,113f0 <_malloc_r+0x474>
   115bc:	015b85b3          	add	a1,s7,s5
   115c0:	40b005b3          	sub	a1,zero,a1
   115c4:	01459593          	slli	a1,a1,0x14
   115c8:	0145da13          	srli	s4,a1,0x14
   115cc:	000a0593          	addi	a1,s4,0
   115d0:	00098513          	addi	a0,s3,0
   115d4:	3a0000ef          	jal	ra,11974 <_sbrk_r>
   115d8:	fff00793          	addi	a5,zero,-1
   115dc:	d0f51ce3          	bne	a0,a5,112f4 <_malloc_r+0x378>
   115e0:	00000a13          	addi	s4,zero,0
   115e4:	d19ff06f          	jal	zero,112fc <_malloc_r+0x380>
   115e8:	05400713          	addi	a4,zero,84
   115ec:	08f76063          	bltu	a4,a5,1166c <_malloc_r+0x6f0>
   115f0:	00c55793          	srli	a5,a0,0xc
   115f4:	06f78693          	addi	a3,a5,111
   115f8:	06e78593          	addi	a1,a5,110
   115fc:	00369693          	slli	a3,a3,0x3
   11600:	dc5ff06f          	jal	zero,113c4 <_malloc_r+0x448>
   11604:	15400713          	addi	a4,zero,340
   11608:	08f76063          	bltu	a4,a5,11688 <_malloc_r+0x70c>
   1160c:	00f4d793          	srli	a5,s1,0xf
   11610:	07878613          	addi	a2,a5,120
   11614:	07778513          	addi	a0,a5,119
   11618:	00361693          	slli	a3,a2,0x3
   1161c:	a3dff06f          	jal	zero,11058 <_malloc_r+0xdc>
   11620:	07c18c13          	addi	s8,gp,124 # 13e44 <__malloc_current_mallinfo>
   11624:	000c2783          	lw	a5,0(s8)
   11628:	00fa87b3          	add	a5,s5,a5
   1162c:	00fc2023          	sw	a5,0(s8)
   11630:	c6dff06f          	jal	zero,1129c <_malloc_r+0x320>
   11634:	014a1713          	slli	a4,s4,0x14
   11638:	c60712e3          	bne	a4,zero,1129c <_malloc_r+0x320>
   1163c:	00892403          	lw	s0,8(s2)
   11640:	015b0ab3          	add	s5,s6,s5
   11644:	001aea93          	ori	s5,s5,1
   11648:	01542223          	sw	s5,4(s0)
   1164c:	d09ff06f          	jal	zero,11354 <_malloc_r+0x3d8>
   11650:	0571a223          	sw	s7,68(gp) # 13e0c <__malloc_sbrk_base>
   11654:	c61ff06f          	jal	zero,112b4 <_malloc_r+0x338>
   11658:	000b8413          	addi	s0,s7,0
   1165c:	cf9ff06f          	jal	zero,11354 <_malloc_r+0x3d8>
   11660:	00100793          	addi	a5,zero,1
   11664:	00fba223          	sw	a5,4(s7)
   11668:	ebdff06f          	jal	zero,11524 <_malloc_r+0x5a8>
   1166c:	15400713          	addi	a4,zero,340
   11670:	06f76263          	bltu	a4,a5,116d4 <_malloc_r+0x758>
   11674:	00f55793          	srli	a5,a0,0xf
   11678:	07878693          	addi	a3,a5,120
   1167c:	07778593          	addi	a1,a5,119
   11680:	00369693          	slli	a3,a3,0x3
   11684:	d41ff06f          	jal	zero,113c4 <_malloc_r+0x448>
   11688:	55400713          	addi	a4,zero,1364
   1168c:	06f76263          	bltu	a4,a5,116f0 <_malloc_r+0x774>
   11690:	0124d793          	srli	a5,s1,0x12
   11694:	07d78613          	addi	a2,a5,125
   11698:	07c78513          	addi	a0,a5,124
   1169c:	00361693          	slli	a3,a2,0x3
   116a0:	9b9ff06f          	jal	zero,11058 <_malloc_r+0xdc>
   116a4:	ff8c8c93          	addi	s9,s9,-8
   116a8:	019a8ab3          	add	s5,s5,s9
   116ac:	417a8ab3          	sub	s5,s5,s7
   116b0:	00000a13          	addi	s4,zero,0
   116b4:	c49ff06f          	jal	zero,112fc <_malloc_r+0x380>
   116b8:	00840593          	addi	a1,s0,8
   116bc:	00098513          	addi	a0,s3,0
   116c0:	618000ef          	jal	ra,11cd8 <_free_r>
   116c4:	00892403          	lw	s0,8(s2)
   116c8:	000c2583          	lw	a1,0(s8)
   116cc:	00442a83          	lw	s5,4(s0)
   116d0:	c85ff06f          	jal	zero,11354 <_malloc_r+0x3d8>
   116d4:	55400713          	addi	a4,zero,1364
   116d8:	02f76463          	bltu	a4,a5,11700 <_malloc_r+0x784>
   116dc:	01255793          	srli	a5,a0,0x12
   116e0:	07d78693          	addi	a3,a5,125
   116e4:	07c78593          	addi	a1,a5,124
   116e8:	00369693          	slli	a3,a3,0x3
   116ec:	cd9ff06f          	jal	zero,113c4 <_malloc_r+0x448>
   116f0:	3f800693          	addi	a3,zero,1016
   116f4:	07f00613          	addi	a2,zero,127
   116f8:	07e00513          	addi	a0,zero,126
   116fc:	95dff06f          	jal	zero,11058 <_malloc_r+0xdc>
   11700:	3f800693          	addi	a3,zero,1016
   11704:	07e00593          	addi	a1,zero,126
   11708:	cbdff06f          	jal	zero,113c4 <_malloc_r+0x448>
   1170c:	00492783          	lw	a5,4(s2)
   11710:	e5dff06f          	jal	zero,1156c <_malloc_r+0x5f0>

00011714 <memcpy>:
   11714:	00a5c7b3          	xor	a5,a1,a0
   11718:	0037f793          	andi	a5,a5,3
   1171c:	00c508b3          	add	a7,a0,a2
   11720:	06079263          	bne	a5,zero,11784 <memcpy+0x70>
   11724:	00300793          	addi	a5,zero,3
   11728:	04c7fe63          	bgeu	a5,a2,11784 <memcpy+0x70>
   1172c:	00357793          	andi	a5,a0,3
   11730:	00050713          	addi	a4,a0,0
   11734:	06079863          	bne	a5,zero,117a4 <memcpy+0x90>
   11738:	ffc8f613          	andi	a2,a7,-4
   1173c:	fe060793          	addi	a5,a2,-32
   11740:	08f76c63          	bltu	a4,a5,117d8 <memcpy+0xc4>
   11744:	02c77c63          	bgeu	a4,a2,1177c <memcpy+0x68>
   11748:	00058693          	addi	a3,a1,0
   1174c:	00070793          	addi	a5,a4,0
   11750:	0006a803          	lw	a6,0(a3)
   11754:	00478793          	addi	a5,a5,4
   11758:	00468693          	addi	a3,a3,4
   1175c:	ff07ae23          	sw	a6,-4(a5)
   11760:	fec7e8e3          	bltu	a5,a2,11750 <memcpy+0x3c>
   11764:	fff60793          	addi	a5,a2,-1
   11768:	40e787b3          	sub	a5,a5,a4
   1176c:	ffc7f793          	andi	a5,a5,-4
   11770:	00478793          	addi	a5,a5,4
   11774:	00f70733          	add	a4,a4,a5
   11778:	00f585b3          	add	a1,a1,a5
   1177c:	01176863          	bltu	a4,a7,1178c <memcpy+0x78>
   11780:	00008067          	jalr	zero,0(ra)
   11784:	00050713          	addi	a4,a0,0
   11788:	ff157ce3          	bgeu	a0,a7,11780 <memcpy+0x6c>
   1178c:	0005c783          	lbu	a5,0(a1)
   11790:	00170713          	addi	a4,a4,1
   11794:	00158593          	addi	a1,a1,1
   11798:	fef70fa3          	sb	a5,-1(a4)
   1179c:	ff1768e3          	bltu	a4,a7,1178c <memcpy+0x78>
   117a0:	00008067          	jalr	zero,0(ra)
   117a4:	0005c683          	lbu	a3,0(a1)
   117a8:	00170713          	addi	a4,a4,1
   117ac:	00377793          	andi	a5,a4,3
   117b0:	fed70fa3          	sb	a3,-1(a4)
   117b4:	00158593          	addi	a1,a1,1
   117b8:	f80780e3          	beq	a5,zero,11738 <memcpy+0x24>
   117bc:	0005c683          	lbu	a3,0(a1)
   117c0:	00170713          	addi	a4,a4,1
   117c4:	00377793          	andi	a5,a4,3
   117c8:	fed70fa3          	sb	a3,-1(a4)
   117cc:	00158593          	addi	a1,a1,1
   117d0:	fc079ae3          	bne	a5,zero,117a4 <memcpy+0x90>
   117d4:	f65ff06f          	jal	zero,11738 <memcpy+0x24>
   117d8:	0045a683          	lw	a3,4(a1)
   117dc:	0005a283          	lw	t0,0(a1)
   117e0:	0085af83          	lw	t6,8(a1)
   117e4:	00c5af03          	lw	t5,12(a1)
   117e8:	0105ae83          	lw	t4,16(a1)
   117ec:	0145ae03          	lw	t3,20(a1)
   117f0:	0185a303          	lw	t1,24(a1)
   117f4:	01c5a803          	lw	a6,28(a1)
   117f8:	00d72223          	sw	a3,4(a4)
   117fc:	0205a683          	lw	a3,32(a1)
   11800:	00572023          	sw	t0,0(a4)
   11804:	01f72423          	sw	t6,8(a4)
   11808:	01e72623          	sw	t5,12(a4)
   1180c:	01d72823          	sw	t4,16(a4)
   11810:	01c72a23          	sw	t3,20(a4)
   11814:	00672c23          	sw	t1,24(a4)
   11818:	01072e23          	sw	a6,28(a4)
   1181c:	02d72023          	sw	a3,32(a4)
   11820:	02470713          	addi	a4,a4,36
   11824:	02458593          	addi	a1,a1,36
   11828:	faf768e3          	bltu	a4,a5,117d8 <memcpy+0xc4>
   1182c:	f19ff06f          	jal	zero,11744 <memcpy+0x30>

00011830 <memset>:
   11830:	00f00313          	addi	t1,zero,15
   11834:	00050713          	addi	a4,a0,0
   11838:	02c37e63          	bgeu	t1,a2,11874 <memset+0x44>
   1183c:	00f77793          	andi	a5,a4,15
   11840:	0a079063          	bne	a5,zero,118e0 <memset+0xb0>
   11844:	08059263          	bne	a1,zero,118c8 <memset+0x98>
   11848:	ff067693          	andi	a3,a2,-16
   1184c:	00f67613          	andi	a2,a2,15
   11850:	00e686b3          	add	a3,a3,a4
   11854:	00b72023          	sw	a1,0(a4)
   11858:	00b72223          	sw	a1,4(a4)
   1185c:	00b72423          	sw	a1,8(a4)
   11860:	00b72623          	sw	a1,12(a4)
   11864:	01070713          	addi	a4,a4,16
   11868:	fed766e3          	bltu	a4,a3,11854 <memset+0x24>
   1186c:	00061463          	bne	a2,zero,11874 <memset+0x44>
   11870:	00008067          	jalr	zero,0(ra)
   11874:	40c306b3          	sub	a3,t1,a2
   11878:	00269693          	slli	a3,a3,0x2
   1187c:	00000297          	auipc	t0,0x0
   11880:	005686b3          	add	a3,a3,t0
   11884:	00c68067          	jalr	zero,12(a3)
   11888:	00b70723          	sb	a1,14(a4)
   1188c:	00b706a3          	sb	a1,13(a4)
   11890:	00b70623          	sb	a1,12(a4)
   11894:	00b705a3          	sb	a1,11(a4)
   11898:	00b70523          	sb	a1,10(a4)
   1189c:	00b704a3          	sb	a1,9(a4)
   118a0:	00b70423          	sb	a1,8(a4)
   118a4:	00b703a3          	sb	a1,7(a4)
   118a8:	00b70323          	sb	a1,6(a4)
   118ac:	00b702a3          	sb	a1,5(a4)
   118b0:	00b70223          	sb	a1,4(a4)
   118b4:	00b701a3          	sb	a1,3(a4)
   118b8:	00b70123          	sb	a1,2(a4)
   118bc:	00b700a3          	sb	a1,1(a4)
   118c0:	00b70023          	sb	a1,0(a4)
   118c4:	00008067          	jalr	zero,0(ra)
   118c8:	0ff5f593          	andi	a1,a1,255
   118cc:	00859693          	slli	a3,a1,0x8
   118d0:	00d5e5b3          	or	a1,a1,a3
   118d4:	01059693          	slli	a3,a1,0x10
   118d8:	00d5e5b3          	or	a1,a1,a3
   118dc:	f6dff06f          	jal	zero,11848 <memset+0x18>
   118e0:	00279693          	slli	a3,a5,0x2
   118e4:	00000297          	auipc	t0,0x0
   118e8:	005686b3          	add	a3,a3,t0
   118ec:	00008293          	addi	t0,ra,0
   118f0:	fa0680e7          	jalr	ra,-96(a3)
   118f4:	00028093          	addi	ra,t0,0 # 118e4 <memset+0xb4>
   118f8:	ff078793          	addi	a5,a5,-16
   118fc:	40f70733          	sub	a4,a4,a5
   11900:	00f60633          	add	a2,a2,a5
   11904:	f6c378e3          	bgeu	t1,a2,11874 <memset+0x44>
   11908:	f3dff06f          	jal	zero,11844 <memset+0x14>

0001190c <__malloc_lock>:
   1190c:	00008067          	jalr	zero,0(ra)

00011910 <__malloc_unlock>:
   11910:	00008067          	jalr	zero,0(ra)

00011914 <srand>:
   11914:	0401a783          	lw	a5,64(gp) # 13e08 <_impure_ptr>
   11918:	0aa7a423          	sw	a0,168(a5)
   1191c:	0a07a623          	sw	zero,172(a5)
   11920:	00008067          	jalr	zero,0(ra)

00011924 <rand>:
   11924:	ff010113          	addi	sp,sp,-16
   11928:	00812423          	sw	s0,8(sp)
   1192c:	0401a403          	lw	s0,64(gp) # 13e08 <_impure_ptr>
   11930:	0301a603          	lw	a2,48(gp) # 13df8 <__SDATA_BEGIN__>
   11934:	0a842503          	lw	a0,168(s0)
   11938:	0ac42583          	lw	a1,172(s0)
   1193c:	0341a683          	lw	a3,52(gp) # 13dfc <__SDATA_BEGIN__+0x4>
   11940:	00112623          	sw	ra,12(sp)
   11944:	2b9000ef          	jal	ra,123fc <__muldi3>
   11948:	00150793          	addi	a5,a0,1
   1194c:	00a7b533          	sltu	a0,a5,a0
   11950:	00b505b3          	add	a1,a0,a1
   11954:	00c12083          	lw	ra,12(sp)
   11958:	0af42423          	sw	a5,168(s0)
   1195c:	0ab42623          	sw	a1,172(s0)
   11960:	00812403          	lw	s0,8(sp)
   11964:	00159513          	slli	a0,a1,0x1
   11968:	00155513          	srli	a0,a0,0x1
   1196c:	01010113          	addi	sp,sp,16
   11970:	00008067          	jalr	zero,0(ra)

00011974 <_sbrk_r>:
   11974:	ff010113          	addi	sp,sp,-16
   11978:	00812423          	sw	s0,8(sp)
   1197c:	00912223          	sw	s1,4(sp)
   11980:	00050413          	addi	s0,a0,0
   11984:	00058513          	addi	a0,a1,0
   11988:	00112623          	sw	ra,12(sp)
   1198c:	0401ac23          	sw	zero,88(gp) # 13e20 <errno>
   11990:	1a5000ef          	jal	ra,12334 <_sbrk>
   11994:	fff00793          	addi	a5,zero,-1
   11998:	00f50c63          	beq	a0,a5,119b0 <_sbrk_r+0x3c>
   1199c:	00c12083          	lw	ra,12(sp)
   119a0:	00812403          	lw	s0,8(sp)
   119a4:	00412483          	lw	s1,4(sp)
   119a8:	01010113          	addi	sp,sp,16
   119ac:	00008067          	jalr	zero,0(ra)
   119b0:	0581a783          	lw	a5,88(gp) # 13e20 <errno>
   119b4:	fe0784e3          	beq	a5,zero,1199c <_sbrk_r+0x28>
   119b8:	00c12083          	lw	ra,12(sp)
   119bc:	00f42023          	sw	a5,0(s0)
   119c0:	00812403          	lw	s0,8(sp)
   119c4:	00412483          	lw	s1,4(sp)
   119c8:	01010113          	addi	sp,sp,16
   119cc:	00008067          	jalr	zero,0(ra)

000119d0 <time>:
   119d0:	fe010113          	addi	sp,sp,-32
   119d4:	00812c23          	sw	s0,24(sp)
   119d8:	00050413          	addi	s0,a0,0
   119dc:	0401a503          	lw	a0,64(gp) # 13e08 <_impure_ptr>
   119e0:	00000613          	addi	a2,zero,0
   119e4:	00010593          	addi	a1,sp,0
   119e8:	00112e23          	sw	ra,28(sp)
   119ec:	5ec000ef          	jal	ra,11fd8 <_gettimeofday_r>
   119f0:	02054863          	blt	a0,zero,11a20 <time+0x50>
   119f4:	00012703          	lw	a4,0(sp)
   119f8:	00412783          	lw	a5,4(sp)
   119fc:	00040663          	beq	s0,zero,11a08 <time+0x38>
   11a00:	00e42023          	sw	a4,0(s0)
   11a04:	00f42223          	sw	a5,4(s0)
   11a08:	01c12083          	lw	ra,28(sp)
   11a0c:	01812403          	lw	s0,24(sp)
   11a10:	00070513          	addi	a0,a4,0
   11a14:	00078593          	addi	a1,a5,0
   11a18:	02010113          	addi	sp,sp,32
   11a1c:	00008067          	jalr	zero,0(ra)
   11a20:	fff00713          	addi	a4,zero,-1
   11a24:	fff00793          	addi	a5,zero,-1
   11a28:	fd5ff06f          	jal	zero,119fc <time+0x2c>

00011a2c <__call_exitprocs>:
   11a2c:	fd010113          	addi	sp,sp,-48
   11a30:	01412c23          	sw	s4,24(sp)
   11a34:	0381aa03          	lw	s4,56(gp) # 13e00 <_global_impure_ptr>
   11a38:	03212023          	sw	s2,32(sp)
   11a3c:	02112623          	sw	ra,44(sp)
   11a40:	148a2903          	lw	s2,328(s4)
   11a44:	02812423          	sw	s0,40(sp)
   11a48:	02912223          	sw	s1,36(sp)
   11a4c:	01312e23          	sw	s3,28(sp)
   11a50:	01512a23          	sw	s5,20(sp)
   11a54:	01612823          	sw	s6,16(sp)
   11a58:	01712623          	sw	s7,12(sp)
   11a5c:	01812423          	sw	s8,8(sp)
   11a60:	04090063          	beq	s2,zero,11aa0 <__call_exitprocs+0x74>
   11a64:	00050b13          	addi	s6,a0,0
   11a68:	00058b93          	addi	s7,a1,0
   11a6c:	00100a93          	addi	s5,zero,1
   11a70:	fff00993          	addi	s3,zero,-1
   11a74:	00492483          	lw	s1,4(s2)
   11a78:	fff48413          	addi	s0,s1,-1
   11a7c:	02044263          	blt	s0,zero,11aa0 <__call_exitprocs+0x74>
   11a80:	00249493          	slli	s1,s1,0x2
   11a84:	009904b3          	add	s1,s2,s1
   11a88:	040b8463          	beq	s7,zero,11ad0 <__call_exitprocs+0xa4>
   11a8c:	1044a783          	lw	a5,260(s1)
   11a90:	05778063          	beq	a5,s7,11ad0 <__call_exitprocs+0xa4>
   11a94:	fff40413          	addi	s0,s0,-1
   11a98:	ffc48493          	addi	s1,s1,-4
   11a9c:	ff3416e3          	bne	s0,s3,11a88 <__call_exitprocs+0x5c>
   11aa0:	02c12083          	lw	ra,44(sp)
   11aa4:	02812403          	lw	s0,40(sp)
   11aa8:	02412483          	lw	s1,36(sp)
   11aac:	02012903          	lw	s2,32(sp)
   11ab0:	01c12983          	lw	s3,28(sp)
   11ab4:	01812a03          	lw	s4,24(sp)
   11ab8:	01412a83          	lw	s5,20(sp)
   11abc:	01012b03          	lw	s6,16(sp)
   11ac0:	00c12b83          	lw	s7,12(sp)
   11ac4:	00812c03          	lw	s8,8(sp)
   11ac8:	03010113          	addi	sp,sp,48
   11acc:	00008067          	jalr	zero,0(ra)
   11ad0:	00492783          	lw	a5,4(s2)
   11ad4:	0044a683          	lw	a3,4(s1)
   11ad8:	fff78793          	addi	a5,a5,-1
   11adc:	04878e63          	beq	a5,s0,11b38 <__call_exitprocs+0x10c>
   11ae0:	0004a223          	sw	zero,4(s1)
   11ae4:	fa0688e3          	beq	a3,zero,11a94 <__call_exitprocs+0x68>
   11ae8:	18892783          	lw	a5,392(s2)
   11aec:	008a9733          	sll	a4,s5,s0
   11af0:	00492c03          	lw	s8,4(s2)
   11af4:	00f777b3          	and	a5,a4,a5
   11af8:	02079263          	bne	a5,zero,11b1c <__call_exitprocs+0xf0>
   11afc:	000680e7          	jalr	ra,0(a3)
   11b00:	00492703          	lw	a4,4(s2)
   11b04:	148a2783          	lw	a5,328(s4)
   11b08:	01871463          	bne	a4,s8,11b10 <__call_exitprocs+0xe4>
   11b0c:	f92784e3          	beq	a5,s2,11a94 <__call_exitprocs+0x68>
   11b10:	f80788e3          	beq	a5,zero,11aa0 <__call_exitprocs+0x74>
   11b14:	00078913          	addi	s2,a5,0
   11b18:	f5dff06f          	jal	zero,11a74 <__call_exitprocs+0x48>
   11b1c:	18c92783          	lw	a5,396(s2)
   11b20:	0844a583          	lw	a1,132(s1)
   11b24:	00f77733          	and	a4,a4,a5
   11b28:	00071c63          	bne	a4,zero,11b40 <__call_exitprocs+0x114>
   11b2c:	000b0513          	addi	a0,s6,0
   11b30:	000680e7          	jalr	ra,0(a3)
   11b34:	fcdff06f          	jal	zero,11b00 <__call_exitprocs+0xd4>
   11b38:	00892223          	sw	s0,4(s2)
   11b3c:	fa9ff06f          	jal	zero,11ae4 <__call_exitprocs+0xb8>
   11b40:	00058513          	addi	a0,a1,0
   11b44:	000680e7          	jalr	ra,0(a3)
   11b48:	fb9ff06f          	jal	zero,11b00 <__call_exitprocs+0xd4>

00011b4c <__libc_fini_array>:
   11b4c:	ff010113          	addi	sp,sp,-16
   11b50:	00812423          	sw	s0,8(sp)
   11b54:	000137b7          	lui	a5,0x13
   11b58:	00013437          	lui	s0,0x13
   11b5c:	5c040413          	addi	s0,s0,1472 # 135c0 <__do_global_dtors_aux_fini_array_entry>
   11b60:	5c478793          	addi	a5,a5,1476 # 135c4 <__fini_array_end>
   11b64:	408787b3          	sub	a5,a5,s0
   11b68:	00912223          	sw	s1,4(sp)
   11b6c:	00112623          	sw	ra,12(sp)
   11b70:	4027d493          	srai	s1,a5,0x2
   11b74:	02048063          	beq	s1,zero,11b94 <__libc_fini_array+0x48>
   11b78:	ffc78793          	addi	a5,a5,-4
   11b7c:	00878433          	add	s0,a5,s0
   11b80:	00042783          	lw	a5,0(s0)
   11b84:	fff48493          	addi	s1,s1,-1
   11b88:	ffc40413          	addi	s0,s0,-4
   11b8c:	000780e7          	jalr	ra,0(a5)
   11b90:	fe0498e3          	bne	s1,zero,11b80 <__libc_fini_array+0x34>
   11b94:	00c12083          	lw	ra,12(sp)
   11b98:	00812403          	lw	s0,8(sp)
   11b9c:	00412483          	lw	s1,4(sp)
   11ba0:	01010113          	addi	sp,sp,16
   11ba4:	00008067          	jalr	zero,0(ra)

00011ba8 <_malloc_trim_r>:
   11ba8:	fe010113          	addi	sp,sp,-32
   11bac:	01312623          	sw	s3,12(sp)
   11bb0:	00812c23          	sw	s0,24(sp)
   11bb4:	00912a23          	sw	s1,20(sp)
   11bb8:	01212823          	sw	s2,16(sp)
   11bbc:	01412423          	sw	s4,8(sp)
   11bc0:	00112e23          	sw	ra,28(sp)
   11bc4:	00058a13          	addi	s4,a1,0
   11bc8:	00050913          	addi	s2,a0,0
   11bcc:	c2818993          	addi	s3,gp,-984 # 139f0 <__malloc_av_>
   11bd0:	d3dff0ef          	jal	ra,1190c <__malloc_lock>
   11bd4:	0089a703          	lw	a4,8(s3)
   11bd8:	000017b7          	lui	a5,0x1
   11bdc:	fef78413          	addi	s0,a5,-17 # fef <register_fini-0xf085>
   11be0:	00472483          	lw	s1,4(a4)
   11be4:	41440433          	sub	s0,s0,s4
   11be8:	ffc4f493          	andi	s1,s1,-4
   11bec:	00940433          	add	s0,s0,s1
   11bf0:	00c45413          	srli	s0,s0,0xc
   11bf4:	fff40413          	addi	s0,s0,-1
   11bf8:	00c41413          	slli	s0,s0,0xc
   11bfc:	00f44e63          	blt	s0,a5,11c18 <_malloc_trim_r+0x70>
   11c00:	00000593          	addi	a1,zero,0
   11c04:	00090513          	addi	a0,s2,0
   11c08:	d6dff0ef          	jal	ra,11974 <_sbrk_r>
   11c0c:	0089a783          	lw	a5,8(s3)
   11c10:	009787b3          	add	a5,a5,s1
   11c14:	02f50863          	beq	a0,a5,11c44 <_malloc_trim_r+0x9c>
   11c18:	00090513          	addi	a0,s2,0
   11c1c:	cf5ff0ef          	jal	ra,11910 <__malloc_unlock>
   11c20:	01c12083          	lw	ra,28(sp)
   11c24:	01812403          	lw	s0,24(sp)
   11c28:	01412483          	lw	s1,20(sp)
   11c2c:	01012903          	lw	s2,16(sp)
   11c30:	00c12983          	lw	s3,12(sp)
   11c34:	00812a03          	lw	s4,8(sp)
   11c38:	00000513          	addi	a0,zero,0
   11c3c:	02010113          	addi	sp,sp,32
   11c40:	00008067          	jalr	zero,0(ra)
   11c44:	408005b3          	sub	a1,zero,s0
   11c48:	00090513          	addi	a0,s2,0
   11c4c:	d29ff0ef          	jal	ra,11974 <_sbrk_r>
   11c50:	fff00793          	addi	a5,zero,-1
   11c54:	04f50863          	beq	a0,a5,11ca4 <_malloc_trim_r+0xfc>
   11c58:	07c18793          	addi	a5,gp,124 # 13e44 <__malloc_current_mallinfo>
   11c5c:	0007a703          	lw	a4,0(a5)
   11c60:	0089a683          	lw	a3,8(s3)
   11c64:	408484b3          	sub	s1,s1,s0
   11c68:	0014e493          	ori	s1,s1,1
   11c6c:	40870433          	sub	s0,a4,s0
   11c70:	00090513          	addi	a0,s2,0
   11c74:	0096a223          	sw	s1,4(a3)
   11c78:	0087a023          	sw	s0,0(a5)
   11c7c:	c95ff0ef          	jal	ra,11910 <__malloc_unlock>
   11c80:	01c12083          	lw	ra,28(sp)
   11c84:	01812403          	lw	s0,24(sp)
   11c88:	01412483          	lw	s1,20(sp)
   11c8c:	01012903          	lw	s2,16(sp)
   11c90:	00c12983          	lw	s3,12(sp)
   11c94:	00812a03          	lw	s4,8(sp)
   11c98:	00100513          	addi	a0,zero,1
   11c9c:	02010113          	addi	sp,sp,32
   11ca0:	00008067          	jalr	zero,0(ra)
   11ca4:	00000593          	addi	a1,zero,0
   11ca8:	00090513          	addi	a0,s2,0
   11cac:	cc9ff0ef          	jal	ra,11974 <_sbrk_r>
   11cb0:	0089a703          	lw	a4,8(s3)
   11cb4:	00f00693          	addi	a3,zero,15
   11cb8:	40e507b3          	sub	a5,a0,a4
   11cbc:	f4f6dee3          	bge	a3,a5,11c18 <_malloc_trim_r+0x70>
   11cc0:	0441a683          	lw	a3,68(gp) # 13e0c <__malloc_sbrk_base>
   11cc4:	0017e793          	ori	a5,a5,1
   11cc8:	00f72223          	sw	a5,4(a4)
   11ccc:	40d50533          	sub	a0,a0,a3
   11cd0:	06a1ae23          	sw	a0,124(gp) # 13e44 <__malloc_current_mallinfo>
   11cd4:	f45ff06f          	jal	zero,11c18 <_malloc_trim_r+0x70>

00011cd8 <_free_r>:
   11cd8:	12058463          	beq	a1,zero,11e00 <_free_r+0x128>
   11cdc:	ff010113          	addi	sp,sp,-16
   11ce0:	00812423          	sw	s0,8(sp)
   11ce4:	00912223          	sw	s1,4(sp)
   11ce8:	00058413          	addi	s0,a1,0
   11cec:	00050493          	addi	s1,a0,0
   11cf0:	00112623          	sw	ra,12(sp)
   11cf4:	c19ff0ef          	jal	ra,1190c <__malloc_lock>
   11cf8:	ffc42803          	lw	a6,-4(s0)
   11cfc:	ff840713          	addi	a4,s0,-8
   11d00:	ffe87793          	andi	a5,a6,-2
   11d04:	00f70633          	add	a2,a4,a5
   11d08:	c2818593          	addi	a1,gp,-984 # 139f0 <__malloc_av_>
   11d0c:	00462683          	lw	a3,4(a2)
   11d10:	0085a503          	lw	a0,8(a1)
   11d14:	ffc6f693          	andi	a3,a3,-4
   11d18:	1ac50663          	beq	a0,a2,11ec4 <_free_r+0x1ec>
   11d1c:	00d62223          	sw	a3,4(a2)
   11d20:	00187813          	andi	a6,a6,1
   11d24:	00d60533          	add	a0,a2,a3
   11d28:	08081e63          	bne	a6,zero,11dc4 <_free_r+0xec>
   11d2c:	ff842303          	lw	t1,-8(s0)
   11d30:	00452803          	lw	a6,4(a0)
   11d34:	40670733          	sub	a4,a4,t1
   11d38:	00872883          	lw	a7,8(a4)
   11d3c:	c3018513          	addi	a0,gp,-976 # 139f8 <__malloc_av_+0x8>
   11d40:	006787b3          	add	a5,a5,t1
   11d44:	00187813          	andi	a6,a6,1
   11d48:	12a88e63          	beq	a7,a0,11e84 <_free_r+0x1ac>
   11d4c:	00c72303          	lw	t1,12(a4)
   11d50:	0068a623          	sw	t1,12(a7)
   11d54:	01132423          	sw	a7,8(t1)
   11d58:	1c080e63          	beq	a6,zero,11f34 <_free_r+0x25c>
   11d5c:	0017e693          	ori	a3,a5,1
   11d60:	00d72223          	sw	a3,4(a4)
   11d64:	00f62023          	sw	a5,0(a2)
   11d68:	1ff00693          	addi	a3,zero,511
   11d6c:	0af6e663          	bltu	a3,a5,11e18 <_free_r+0x140>
   11d70:	ff87f693          	andi	a3,a5,-8
   11d74:	00868693          	addi	a3,a3,8
   11d78:	0045a503          	lw	a0,4(a1)
   11d7c:	00d586b3          	add	a3,a1,a3
   11d80:	0006a603          	lw	a2,0(a3)
   11d84:	0057d813          	srli	a6,a5,0x5
   11d88:	00100793          	addi	a5,zero,1
   11d8c:	010797b3          	sll	a5,a5,a6
   11d90:	00a7e7b3          	or	a5,a5,a0
   11d94:	ff868513          	addi	a0,a3,-8
   11d98:	00a72623          	sw	a0,12(a4)
   11d9c:	00c72423          	sw	a2,8(a4)
   11da0:	00f5a223          	sw	a5,4(a1)
   11da4:	00e6a023          	sw	a4,0(a3)
   11da8:	00e62623          	sw	a4,12(a2)
   11dac:	00812403          	lw	s0,8(sp)
   11db0:	00c12083          	lw	ra,12(sp)
   11db4:	00048513          	addi	a0,s1,0
   11db8:	00412483          	lw	s1,4(sp)
   11dbc:	01010113          	addi	sp,sp,16
   11dc0:	b51ff06f          	jal	zero,11910 <__malloc_unlock>
   11dc4:	00452503          	lw	a0,4(a0)
   11dc8:	00157513          	andi	a0,a0,1
   11dcc:	02051c63          	bne	a0,zero,11e04 <_free_r+0x12c>
   11dd0:	00d787b3          	add	a5,a5,a3
   11dd4:	c3018513          	addi	a0,gp,-976 # 139f8 <__malloc_av_+0x8>
   11dd8:	00862683          	lw	a3,8(a2)
   11ddc:	0017e893          	ori	a7,a5,1
   11de0:	00f70833          	add	a6,a4,a5
   11de4:	16a68463          	beq	a3,a0,11f4c <_free_r+0x274>
   11de8:	00c62603          	lw	a2,12(a2)
   11dec:	00c6a623          	sw	a2,12(a3)
   11df0:	00d62423          	sw	a3,8(a2)
   11df4:	01172223          	sw	a7,4(a4)
   11df8:	00f82023          	sw	a5,0(a6)
   11dfc:	f6dff06f          	jal	zero,11d68 <_free_r+0x90>
   11e00:	00008067          	jalr	zero,0(ra)
   11e04:	0017e693          	ori	a3,a5,1
   11e08:	fed42e23          	sw	a3,-4(s0)
   11e0c:	00f62023          	sw	a5,0(a2)
   11e10:	1ff00693          	addi	a3,zero,511
   11e14:	f4f6fee3          	bgeu	a3,a5,11d70 <_free_r+0x98>
   11e18:	0097d693          	srli	a3,a5,0x9
   11e1c:	00400613          	addi	a2,zero,4
   11e20:	0ed66863          	bltu	a2,a3,11f10 <_free_r+0x238>
   11e24:	0067d693          	srli	a3,a5,0x6
   11e28:	03968813          	addi	a6,a3,57
   11e2c:	03868613          	addi	a2,a3,56
   11e30:	00381813          	slli	a6,a6,0x3
   11e34:	01058833          	add	a6,a1,a6
   11e38:	00082683          	lw	a3,0(a6)
   11e3c:	ff880813          	addi	a6,a6,-8
   11e40:	12d80463          	beq	a6,a3,11f68 <_free_r+0x290>
   11e44:	0046a603          	lw	a2,4(a3)
   11e48:	ffc67613          	andi	a2,a2,-4
   11e4c:	00c7f663          	bgeu	a5,a2,11e58 <_free_r+0x180>
   11e50:	0086a683          	lw	a3,8(a3)
   11e54:	fed818e3          	bne	a6,a3,11e44 <_free_r+0x16c>
   11e58:	00c6a803          	lw	a6,12(a3)
   11e5c:	01072623          	sw	a6,12(a4)
   11e60:	00d72423          	sw	a3,8(a4)
   11e64:	00812403          	lw	s0,8(sp)
   11e68:	00c12083          	lw	ra,12(sp)
   11e6c:	00e82423          	sw	a4,8(a6)
   11e70:	00048513          	addi	a0,s1,0
   11e74:	00412483          	lw	s1,4(sp)
   11e78:	00e6a623          	sw	a4,12(a3)
   11e7c:	01010113          	addi	sp,sp,16
   11e80:	a91ff06f          	jal	zero,11910 <__malloc_unlock>
   11e84:	14081263          	bne	a6,zero,11fc8 <_free_r+0x2f0>
   11e88:	00c62583          	lw	a1,12(a2)
   11e8c:	00862603          	lw	a2,8(a2)
   11e90:	00f687b3          	add	a5,a3,a5
   11e94:	00812403          	lw	s0,8(sp)
   11e98:	00b62623          	sw	a1,12(a2)
   11e9c:	00c5a423          	sw	a2,8(a1)
   11ea0:	0017e693          	ori	a3,a5,1
   11ea4:	00c12083          	lw	ra,12(sp)
   11ea8:	00d72223          	sw	a3,4(a4)
   11eac:	00048513          	addi	a0,s1,0
   11eb0:	00f70733          	add	a4,a4,a5
   11eb4:	00412483          	lw	s1,4(sp)
   11eb8:	00f72023          	sw	a5,0(a4)
   11ebc:	01010113          	addi	sp,sp,16
   11ec0:	a51ff06f          	jal	zero,11910 <__malloc_unlock>
   11ec4:	00187813          	andi	a6,a6,1
   11ec8:	00d787b3          	add	a5,a5,a3
   11ecc:	02081063          	bne	a6,zero,11eec <_free_r+0x214>
   11ed0:	ff842503          	lw	a0,-8(s0)
   11ed4:	40a70733          	sub	a4,a4,a0
   11ed8:	00c72683          	lw	a3,12(a4)
   11edc:	00872603          	lw	a2,8(a4)
   11ee0:	00a787b3          	add	a5,a5,a0
   11ee4:	00d62623          	sw	a3,12(a2)
   11ee8:	00c6a423          	sw	a2,8(a3)
   11eec:	0017e613          	ori	a2,a5,1
   11ef0:	0481a683          	lw	a3,72(gp) # 13e10 <__malloc_trim_threshold>
   11ef4:	00c72223          	sw	a2,4(a4)
   11ef8:	00e5a423          	sw	a4,8(a1)
   11efc:	ead7e8e3          	bltu	a5,a3,11dac <_free_r+0xd4>
   11f00:	0541a583          	lw	a1,84(gp) # 13e1c <__malloc_top_pad>
   11f04:	00048513          	addi	a0,s1,0
   11f08:	ca1ff0ef          	jal	ra,11ba8 <_malloc_trim_r>
   11f0c:	ea1ff06f          	jal	zero,11dac <_free_r+0xd4>
   11f10:	01400613          	addi	a2,zero,20
   11f14:	02d67463          	bgeu	a2,a3,11f3c <_free_r+0x264>
   11f18:	05400613          	addi	a2,zero,84
   11f1c:	06d66463          	bltu	a2,a3,11f84 <_free_r+0x2ac>
   11f20:	00c7d693          	srli	a3,a5,0xc
   11f24:	06f68813          	addi	a6,a3,111
   11f28:	06e68613          	addi	a2,a3,110
   11f2c:	00381813          	slli	a6,a6,0x3
   11f30:	f05ff06f          	jal	zero,11e34 <_free_r+0x15c>
   11f34:	00d787b3          	add	a5,a5,a3
   11f38:	ea1ff06f          	jal	zero,11dd8 <_free_r+0x100>
   11f3c:	05c68813          	addi	a6,a3,92
   11f40:	05b68613          	addi	a2,a3,91
   11f44:	00381813          	slli	a6,a6,0x3
   11f48:	eedff06f          	jal	zero,11e34 <_free_r+0x15c>
   11f4c:	00e5aa23          	sw	a4,20(a1)
   11f50:	00e5a823          	sw	a4,16(a1)
   11f54:	00a72623          	sw	a0,12(a4)
   11f58:	00a72423          	sw	a0,8(a4)
   11f5c:	01172223          	sw	a7,4(a4)
   11f60:	00f82023          	sw	a5,0(a6)
   11f64:	e49ff06f          	jal	zero,11dac <_free_r+0xd4>
   11f68:	0045a503          	lw	a0,4(a1)
   11f6c:	40265613          	srai	a2,a2,0x2
   11f70:	00100793          	addi	a5,zero,1
   11f74:	00c79633          	sll	a2,a5,a2
   11f78:	00a66633          	or	a2,a2,a0
   11f7c:	00c5a223          	sw	a2,4(a1)
   11f80:	eddff06f          	jal	zero,11e5c <_free_r+0x184>
   11f84:	15400613          	addi	a2,zero,340
   11f88:	00d66c63          	bltu	a2,a3,11fa0 <_free_r+0x2c8>
   11f8c:	00f7d693          	srli	a3,a5,0xf
   11f90:	07868813          	addi	a6,a3,120
   11f94:	07768613          	addi	a2,a3,119
   11f98:	00381813          	slli	a6,a6,0x3
   11f9c:	e99ff06f          	jal	zero,11e34 <_free_r+0x15c>
   11fa0:	55400613          	addi	a2,zero,1364
   11fa4:	00d66c63          	bltu	a2,a3,11fbc <_free_r+0x2e4>
   11fa8:	0127d693          	srli	a3,a5,0x12
   11fac:	07d68813          	addi	a6,a3,125
   11fb0:	07c68613          	addi	a2,a3,124
   11fb4:	00381813          	slli	a6,a6,0x3
   11fb8:	e7dff06f          	jal	zero,11e34 <_free_r+0x15c>
   11fbc:	3f800813          	addi	a6,zero,1016
   11fc0:	07e00613          	addi	a2,zero,126
   11fc4:	e71ff06f          	jal	zero,11e34 <_free_r+0x15c>
   11fc8:	0017e693          	ori	a3,a5,1
   11fcc:	00d72223          	sw	a3,4(a4)
   11fd0:	00f62023          	sw	a5,0(a2)
   11fd4:	dd9ff06f          	jal	zero,11dac <_free_r+0xd4>

00011fd8 <_gettimeofday_r>:
   11fd8:	ff010113          	addi	sp,sp,-16
   11fdc:	00058713          	addi	a4,a1,0
   11fe0:	00812423          	sw	s0,8(sp)
   11fe4:	00912223          	sw	s1,4(sp)
   11fe8:	00050413          	addi	s0,a0,0
   11fec:	00060593          	addi	a1,a2,0
   11ff0:	00070513          	addi	a0,a4,0
   11ff4:	00112623          	sw	ra,12(sp)
   11ff8:	0401ac23          	sw	zero,88(gp) # 13e20 <errno>
   11ffc:	2e0000ef          	jal	ra,122dc <_gettimeofday>
   12000:	fff00793          	addi	a5,zero,-1
   12004:	00f50c63          	beq	a0,a5,1201c <_gettimeofday_r+0x44>
   12008:	00c12083          	lw	ra,12(sp)
   1200c:	00812403          	lw	s0,8(sp)
   12010:	00412483          	lw	s1,4(sp)
   12014:	01010113          	addi	sp,sp,16
   12018:	00008067          	jalr	zero,0(ra)
   1201c:	0581a783          	lw	a5,88(gp) # 13e20 <errno>
   12020:	fe0784e3          	beq	a5,zero,12008 <_gettimeofday_r+0x30>
   12024:	00c12083          	lw	ra,12(sp)
   12028:	00f42023          	sw	a5,0(s0)
   1202c:	00812403          	lw	s0,8(sp)
   12030:	00412483          	lw	s1,4(sp)
   12034:	01010113          	addi	sp,sp,16
   12038:	00008067          	jalr	zero,0(ra)

0001203c <cleanup_glue>:
   1203c:	fe010113          	addi	sp,sp,-32
   12040:	01212823          	sw	s2,16(sp)
   12044:	0005a903          	lw	s2,0(a1)
   12048:	00812c23          	sw	s0,24(sp)
   1204c:	00912a23          	sw	s1,20(sp)
   12050:	00112e23          	sw	ra,28(sp)
   12054:	01312623          	sw	s3,12(sp)
   12058:	01412423          	sw	s4,8(sp)
   1205c:	00058413          	addi	s0,a1,0
   12060:	00050493          	addi	s1,a0,0
   12064:	04090263          	beq	s2,zero,120a8 <cleanup_glue+0x6c>
   12068:	00092983          	lw	s3,0(s2)
   1206c:	02098863          	beq	s3,zero,1209c <cleanup_glue+0x60>
   12070:	0009aa03          	lw	s4,0(s3)
   12074:	000a0e63          	beq	s4,zero,12090 <cleanup_glue+0x54>
   12078:	000a2583          	lw	a1,0(s4)
   1207c:	00058463          	beq	a1,zero,12084 <cleanup_glue+0x48>
   12080:	fbdff0ef          	jal	ra,1203c <cleanup_glue>
   12084:	000a0593          	addi	a1,s4,0
   12088:	00048513          	addi	a0,s1,0
   1208c:	c4dff0ef          	jal	ra,11cd8 <_free_r>
   12090:	00098593          	addi	a1,s3,0
   12094:	00048513          	addi	a0,s1,0
   12098:	c41ff0ef          	jal	ra,11cd8 <_free_r>
   1209c:	00090593          	addi	a1,s2,0
   120a0:	00048513          	addi	a0,s1,0
   120a4:	c35ff0ef          	jal	ra,11cd8 <_free_r>
   120a8:	00040593          	addi	a1,s0,0
   120ac:	01812403          	lw	s0,24(sp)
   120b0:	01c12083          	lw	ra,28(sp)
   120b4:	01012903          	lw	s2,16(sp)
   120b8:	00c12983          	lw	s3,12(sp)
   120bc:	00812a03          	lw	s4,8(sp)
   120c0:	00048513          	addi	a0,s1,0
   120c4:	01412483          	lw	s1,20(sp)
   120c8:	02010113          	addi	sp,sp,32
   120cc:	c0dff06f          	jal	zero,11cd8 <_free_r>

000120d0 <_reclaim_reent>:
   120d0:	0401a783          	lw	a5,64(gp) # 13e08 <_impure_ptr>
   120d4:	10a78a63          	beq	a5,a0,121e8 <_reclaim_reent+0x118>
   120d8:	04c52583          	lw	a1,76(a0)
   120dc:	fe010113          	addi	sp,sp,-32
   120e0:	00912a23          	sw	s1,20(sp)
   120e4:	00112e23          	sw	ra,28(sp)
   120e8:	00812c23          	sw	s0,24(sp)
   120ec:	01212823          	sw	s2,16(sp)
   120f0:	01312623          	sw	s3,12(sp)
   120f4:	00050493          	addi	s1,a0,0
   120f8:	04058063          	beq	a1,zero,12138 <_reclaim_reent+0x68>
   120fc:	00000913          	addi	s2,zero,0
   12100:	08000993          	addi	s3,zero,128
   12104:	012587b3          	add	a5,a1,s2
   12108:	0007a403          	lw	s0,0(a5)
   1210c:	00040e63          	beq	s0,zero,12128 <_reclaim_reent+0x58>
   12110:	00040593          	addi	a1,s0,0
   12114:	00042403          	lw	s0,0(s0)
   12118:	00048513          	addi	a0,s1,0
   1211c:	bbdff0ef          	jal	ra,11cd8 <_free_r>
   12120:	fe0418e3          	bne	s0,zero,12110 <_reclaim_reent+0x40>
   12124:	04c4a583          	lw	a1,76(s1)
   12128:	00490913          	addi	s2,s2,4
   1212c:	fd391ce3          	bne	s2,s3,12104 <_reclaim_reent+0x34>
   12130:	00048513          	addi	a0,s1,0
   12134:	ba5ff0ef          	jal	ra,11cd8 <_free_r>
   12138:	0404a583          	lw	a1,64(s1)
   1213c:	00058663          	beq	a1,zero,12148 <_reclaim_reent+0x78>
   12140:	00048513          	addi	a0,s1,0
   12144:	b95ff0ef          	jal	ra,11cd8 <_free_r>
   12148:	1484a403          	lw	s0,328(s1)
   1214c:	02040063          	beq	s0,zero,1216c <_reclaim_reent+0x9c>
   12150:	14c48913          	addi	s2,s1,332
   12154:	01240c63          	beq	s0,s2,1216c <_reclaim_reent+0x9c>
   12158:	00040593          	addi	a1,s0,0
   1215c:	00042403          	lw	s0,0(s0)
   12160:	00048513          	addi	a0,s1,0
   12164:	b75ff0ef          	jal	ra,11cd8 <_free_r>
   12168:	fe8918e3          	bne	s2,s0,12158 <_reclaim_reent+0x88>
   1216c:	0544a583          	lw	a1,84(s1)
   12170:	00058663          	beq	a1,zero,1217c <_reclaim_reent+0xac>
   12174:	00048513          	addi	a0,s1,0
   12178:	b61ff0ef          	jal	ra,11cd8 <_free_r>
   1217c:	0384a783          	lw	a5,56(s1)
   12180:	04078663          	beq	a5,zero,121cc <_reclaim_reent+0xfc>
   12184:	03c4a783          	lw	a5,60(s1)
   12188:	00048513          	addi	a0,s1,0
   1218c:	000780e7          	jalr	ra,0(a5)
   12190:	2e04a403          	lw	s0,736(s1)
   12194:	02040c63          	beq	s0,zero,121cc <_reclaim_reent+0xfc>
   12198:	00042583          	lw	a1,0(s0)
   1219c:	00058663          	beq	a1,zero,121a8 <_reclaim_reent+0xd8>
   121a0:	00048513          	addi	a0,s1,0
   121a4:	e99ff0ef          	jal	ra,1203c <cleanup_glue>
   121a8:	00040593          	addi	a1,s0,0
   121ac:	01812403          	lw	s0,24(sp)
   121b0:	01c12083          	lw	ra,28(sp)
   121b4:	01012903          	lw	s2,16(sp)
   121b8:	00c12983          	lw	s3,12(sp)
   121bc:	00048513          	addi	a0,s1,0
   121c0:	01412483          	lw	s1,20(sp)
   121c4:	02010113          	addi	sp,sp,32
   121c8:	b11ff06f          	jal	zero,11cd8 <_free_r>
   121cc:	01c12083          	lw	ra,28(sp)
   121d0:	01812403          	lw	s0,24(sp)
   121d4:	01412483          	lw	s1,20(sp)
   121d8:	01012903          	lw	s2,16(sp)
   121dc:	00c12983          	lw	s3,12(sp)
   121e0:	02010113          	addi	sp,sp,32
   121e4:	00008067          	jalr	zero,0(ra)
   121e8:	00008067          	jalr	zero,0(ra)

000121ec <atexit>:
   121ec:	00050593          	addi	a1,a0,0
   121f0:	00000693          	addi	a3,zero,0
   121f4:	00000613          	addi	a2,zero,0
   121f8:	00000513          	addi	a0,zero,0
   121fc:	0040006f          	jal	zero,12200 <__register_exitproc>

00012200 <__register_exitproc>:
   12200:	0381a703          	lw	a4,56(gp) # 13e00 <_global_impure_ptr>
   12204:	14872783          	lw	a5,328(a4)
   12208:	04078c63          	beq	a5,zero,12260 <__register_exitproc+0x60>
   1220c:	0047a703          	lw	a4,4(a5)
   12210:	01f00813          	addi	a6,zero,31
   12214:	06e84e63          	blt	a6,a4,12290 <__register_exitproc+0x90>
   12218:	00271813          	slli	a6,a4,0x2
   1221c:	02050663          	beq	a0,zero,12248 <__register_exitproc+0x48>
   12220:	01078333          	add	t1,a5,a6
   12224:	08c32423          	sw	a2,136(t1)
   12228:	1887a883          	lw	a7,392(a5)
   1222c:	00100613          	addi	a2,zero,1
   12230:	00e61633          	sll	a2,a2,a4
   12234:	00c8e8b3          	or	a7,a7,a2
   12238:	1917a423          	sw	a7,392(a5)
   1223c:	10d32423          	sw	a3,264(t1)
   12240:	00200693          	addi	a3,zero,2
   12244:	02d50463          	beq	a0,a3,1226c <__register_exitproc+0x6c>
   12248:	00170713          	addi	a4,a4,1
   1224c:	00e7a223          	sw	a4,4(a5)
   12250:	010787b3          	add	a5,a5,a6
   12254:	00b7a423          	sw	a1,8(a5)
   12258:	00000513          	addi	a0,zero,0
   1225c:	00008067          	jalr	zero,0(ra)
   12260:	14c70793          	addi	a5,a4,332
   12264:	14f72423          	sw	a5,328(a4)
   12268:	fa5ff06f          	jal	zero,1220c <__register_exitproc+0xc>
   1226c:	18c7a683          	lw	a3,396(a5)
   12270:	00170713          	addi	a4,a4,1
   12274:	00e7a223          	sw	a4,4(a5)
   12278:	00c6e633          	or	a2,a3,a2
   1227c:	18c7a623          	sw	a2,396(a5)
   12280:	010787b3          	add	a5,a5,a6
   12284:	00b7a423          	sw	a1,8(a5)
   12288:	00000513          	addi	a0,zero,0
   1228c:	00008067          	jalr	zero,0(ra)
   12290:	fff00513          	addi	a0,zero,-1
   12294:	00008067          	jalr	zero,0(ra)

00012298 <_exit>:
   12298:	00000593          	addi	a1,zero,0
   1229c:	00000613          	addi	a2,zero,0
   122a0:	00000693          	addi	a3,zero,0
   122a4:	00000713          	addi	a4,zero,0
   122a8:	00000793          	addi	a5,zero,0
   122ac:	05d00893          	addi	a7,zero,93
   122b0:	00000073          	ecall
   122b4:	00054463          	blt	a0,zero,122bc <_exit+0x24>
   122b8:	0000006f          	jal	zero,122b8 <_exit+0x20>
   122bc:	ff010113          	addi	sp,sp,-16
   122c0:	00812423          	sw	s0,8(sp)
   122c4:	00050413          	addi	s0,a0,0
   122c8:	00112623          	sw	ra,12(sp)
   122cc:	40800433          	sub	s0,zero,s0
   122d0:	100000ef          	jal	ra,123d0 <__errno>
   122d4:	00852023          	sw	s0,0(a0)
   122d8:	0000006f          	jal	zero,122d8 <_exit+0x40>

000122dc <_gettimeofday>:
   122dc:	ff010113          	addi	sp,sp,-16
   122e0:	00112623          	sw	ra,12(sp)
   122e4:	00812423          	sw	s0,8(sp)
   122e8:	00000593          	addi	a1,zero,0
   122ec:	00000613          	addi	a2,zero,0
   122f0:	00000693          	addi	a3,zero,0
   122f4:	00000713          	addi	a4,zero,0
   122f8:	00000793          	addi	a5,zero,0
   122fc:	0a900893          	addi	a7,zero,169
   12300:	00000073          	ecall
   12304:	00050413          	addi	s0,a0,0
   12308:	00054c63          	blt	a0,zero,12320 <_gettimeofday+0x44>
   1230c:	00c12083          	lw	ra,12(sp)
   12310:	00040513          	addi	a0,s0,0
   12314:	00812403          	lw	s0,8(sp)
   12318:	01010113          	addi	sp,sp,16
   1231c:	00008067          	jalr	zero,0(ra)
   12320:	40800433          	sub	s0,zero,s0
   12324:	0ac000ef          	jal	ra,123d0 <__errno>
   12328:	00852023          	sw	s0,0(a0)
   1232c:	fff00413          	addi	s0,zero,-1
   12330:	fddff06f          	jal	zero,1230c <_gettimeofday+0x30>

00012334 <_sbrk>:
   12334:	05c1a783          	lw	a5,92(gp) # 13e24 <heap_end.0>
   12338:	ff010113          	addi	sp,sp,-16
   1233c:	00112623          	sw	ra,12(sp)
   12340:	00050813          	addi	a6,a0,0
   12344:	02079863          	bne	a5,zero,12374 <_sbrk+0x40>
   12348:	00000513          	addi	a0,zero,0
   1234c:	00000593          	addi	a1,zero,0
   12350:	00000613          	addi	a2,zero,0
   12354:	00000693          	addi	a3,zero,0
   12358:	00000713          	addi	a4,zero,0
   1235c:	0d600893          	addi	a7,zero,214
   12360:	00000073          	ecall
   12364:	fff00713          	addi	a4,zero,-1
   12368:	00050793          	addi	a5,a0,0
   1236c:	04e50463          	beq	a0,a4,123b4 <_sbrk+0x80>
   12370:	04a1ae23          	sw	a0,92(gp) # 13e24 <heap_end.0>
   12374:	00f80533          	add	a0,a6,a5
   12378:	00000593          	addi	a1,zero,0
   1237c:	00000613          	addi	a2,zero,0
   12380:	00000693          	addi	a3,zero,0
   12384:	00000713          	addi	a4,zero,0
   12388:	00000793          	addi	a5,zero,0
   1238c:	0d600893          	addi	a7,zero,214
   12390:	00000073          	ecall
   12394:	05c1a783          	lw	a5,92(gp) # 13e24 <heap_end.0>
   12398:	00f80833          	add	a6,a6,a5
   1239c:	01051c63          	bne	a0,a6,123b4 <_sbrk+0x80>
   123a0:	00c12083          	lw	ra,12(sp)
   123a4:	04a1ae23          	sw	a0,92(gp) # 13e24 <heap_end.0>
   123a8:	00078513          	addi	a0,a5,0
   123ac:	01010113          	addi	sp,sp,16
   123b0:	00008067          	jalr	zero,0(ra)
   123b4:	01c000ef          	jal	ra,123d0 <__errno>
   123b8:	00c12083          	lw	ra,12(sp)
   123bc:	00c00793          	addi	a5,zero,12
   123c0:	00f52023          	sw	a5,0(a0)
   123c4:	fff00513          	addi	a0,zero,-1
   123c8:	01010113          	addi	sp,sp,16
   123cc:	00008067          	jalr	zero,0(ra)

000123d0 <__errno>:
   123d0:	0401a503          	lw	a0,64(gp) # 13e08 <_impure_ptr>
   123d4:	00008067          	jalr	zero,0(ra)

000123d8 <__mulsi3>:
   123d8:	00050613          	addi	a2,a0,0
   123dc:	00000513          	addi	a0,zero,0
   123e0:	0015f693          	andi	a3,a1,1
   123e4:	00068463          	beq	a3,zero,123ec <__mulsi3+0x14>
   123e8:	00c50533          	add	a0,a0,a2
   123ec:	0015d593          	srli	a1,a1,0x1
   123f0:	00161613          	slli	a2,a2,0x1
   123f4:	fe0596e3          	bne	a1,zero,123e0 <__mulsi3+0x8>
   123f8:	00008067          	jalr	zero,0(ra)

000123fc <__muldi3>:
   123fc:	00050313          	addi	t1,a0,0
   12400:	ff010113          	addi	sp,sp,-16
   12404:	00060513          	addi	a0,a2,0
   12408:	00068893          	addi	a7,a3,0
   1240c:	00112623          	sw	ra,12(sp)
   12410:	00030613          	addi	a2,t1,0
   12414:	00050693          	addi	a3,a0,0
   12418:	00000713          	addi	a4,zero,0
   1241c:	00000793          	addi	a5,zero,0
   12420:	00000813          	addi	a6,zero,0
   12424:	0016fe13          	andi	t3,a3,1
   12428:	00171e93          	slli	t4,a4,0x1
   1242c:	000e0c63          	beq	t3,zero,12444 <__muldi3+0x48>
   12430:	01060e33          	add	t3,a2,a6
   12434:	010e3833          	sltu	a6,t3,a6
   12438:	00e787b3          	add	a5,a5,a4
   1243c:	00f807b3          	add	a5,a6,a5
   12440:	000e0813          	addi	a6,t3,0
   12444:	01f65713          	srli	a4,a2,0x1f
   12448:	0016d693          	srli	a3,a3,0x1
   1244c:	00eee733          	or	a4,t4,a4
   12450:	00161613          	slli	a2,a2,0x1
   12454:	fc0698e3          	bne	a3,zero,12424 <__muldi3+0x28>
   12458:	00058663          	beq	a1,zero,12464 <__muldi3+0x68>
   1245c:	f7dff0ef          	jal	ra,123d8 <__mulsi3>
   12460:	00a787b3          	add	a5,a5,a0
   12464:	00088a63          	beq	a7,zero,12478 <__muldi3+0x7c>
   12468:	00030513          	addi	a0,t1,0
   1246c:	00088593          	addi	a1,a7,0
   12470:	f69ff0ef          	jal	ra,123d8 <__mulsi3>
   12474:	00f507b3          	add	a5,a0,a5
   12478:	00c12083          	lw	ra,12(sp)
   1247c:	00080513          	addi	a0,a6,0
   12480:	00078593          	addi	a1,a5,0
   12484:	01010113          	addi	sp,sp,16
   12488:	00008067          	jalr	zero,0(ra)
